
Discarded input sections

 .MIPS.abiflags
                0x0000000000000000       0x18 build/rom_header.o
 .pdr           0x0000000000000000        0x0 build/rom_header.o
 .gnu.attributes
                0x0000000000000000       0x10 build/rom_header.o
 .reginfo       0x0000000000000000       0x18 build/bootcode.o
 .MIPS.abiflags
                0x0000000000000000       0x18 build/bootcode.o
 .pdr           0x0000000000000000        0x0 build/bootcode.o
 .gnu.attributes
                0x0000000000000000       0x10 build/bootcode.o
 .reginfo       0x0000000000000000       0x18 build/_start.o
 .MIPS.abiflags
                0x0000000000000000       0x18 build/_start.o
 .pdr           0x0000000000000000        0x0 build/_start.o
 .gnu.attributes
                0x0000000000000000       0x10 build/_start.o
 .options       0x0000000000000000       0x20 build/boot.o
 .reginfo       0x0000000000000000       0x18 build/boot.o
 .options       0x0000000000000000       0x20 build/init.o
 .reginfo       0x0000000000000000       0x18 build/init.o
 .options       0x0000000000000000       0x20 build/sched.o
 .reginfo       0x0000000000000000       0x18 build/sched.o
 .options       0x0000000000000000       0x20 build/osMapTLB.o
 .reginfo       0x0000000000000000       0x18 build/osMapTLB.o
 .options       0x0000000000000000       0x20 build/tlb_manage.o
 .reginfo       0x0000000000000000       0x18 build/tlb_manage.o
 .options       0x0000000000000000       0x20 build/tlb_random.o
 .reginfo       0x0000000000000000       0x18 build/tlb_random.o
 .options       0x0000000000000000       0x20 build/tlb_resolve.o
 .reginfo       0x0000000000000000       0x18 build/tlb_resolve.o
 .options       0x0000000000000000       0x20 build/tlb_hardware.o
 .reginfo       0x0000000000000000       0x18 build/tlb_hardware.o
 .options       0x0000000000000000       0x20 build/audi.o
 .reginfo       0x0000000000000000       0x18 build/audi.o
 .options       0x0000000000000000       0x20 build/speed_graph.o
 .reginfo       0x0000000000000000       0x18 build/speed_graph.o
 .options       0x0000000000000000       0x20 build/video.o
 .reginfo       0x0000000000000000       0x18 build/video.o
 .options       0x0000000000000000       0x20 build/deb.o
 .reginfo       0x0000000000000000       0x18 build/deb.o
 .options       0x0000000000000000       0x20 build/debug_stuff_split.o
 .reginfo       0x0000000000000000       0x18 build/debug_stuff_split.o
 .gptab.data    0x0000000000000000       0x40 build/debug_stuff_split.o
 .mdebug        0x0000000000000000      0x840 build/debug_stuff_split.o
 .options       0x0000000000000000       0x20 build/debug_getlastRA.o
 .reginfo       0x0000000000000000       0x18 build/debug_getlastRA.o
 .options       0x0000000000000000       0x20 build/ramrom.o
 .reginfo       0x0000000000000000       0x18 build/ramrom.o
 .gptab.bss     0x0000000000000000       0x20 build/ramrom.o
 .mdebug        0x0000000000000000      0x968 build/ramrom.o
 .options       0x0000000000000000       0x20 build/boss.o
 .reginfo       0x0000000000000000       0x18 build/boss.o
 .options       0x0000000000000000       0x20 build/music.o
 .reginfo       0x0000000000000000       0x18 build/music.o
 .options       0x0000000000000000       0x20 build/sfx.o
 .reginfo       0x0000000000000000       0x18 build/sfx.o
 .options       0x0000000000000000       0x20 build/memp.o
 .reginfo       0x0000000000000000       0x18 build/memp.o
 .options       0x0000000000000000       0x20 build/mema.o
 .reginfo       0x0000000000000000       0x18 build/mema.o
 .options       0x0000000000000000       0x20 build/random.o
 .reginfo       0x0000000000000000       0x18 build/random.o
 .options       0x0000000000000000       0x20 build/token.o
 .reginfo       0x0000000000000000       0x18 build/token.o
 .options       0x0000000000000000       0x20 build/stringhandler.o
 .reginfo       0x0000000000000000       0x18 build/stringhandler.o
 .options       0x0000000000000000       0x20 build/sprintf.o
 .reginfo       0x0000000000000000       0x18 build/sprintf.o
 .options       0x0000000000000000       0x20 build/pi.o
 .reginfo       0x0000000000000000       0x18 build/pi.o
 .gptab.bss     0x0000000000000000       0x20 build/pi.o
 .mdebug        0x0000000000000000      0x3b0 build/pi.o
 .options       0x0000000000000000       0x20 build/vi.o
 .reginfo       0x0000000000000000       0x18 build/vi.o
 .options       0x0000000000000000       0x20 build/debugmenu.o
 .reginfo       0x0000000000000000       0x18 build/debugmenu.o
 .options       0x0000000000000000       0x20 build/joy.o
 .reginfo       0x0000000000000000       0x18 build/joy.o
 .options       0x0000000000000000       0x20 build/joy_rumble.o
 .reginfo       0x0000000000000000       0x18 build/joy_rumble.o
 .options       0x0000000000000000       0x20 build/rmon.o
 .reginfo       0x0000000000000000       0x18 build/rmon.o
 .reginfo       0x0000000000000000       0x18 build/libultra/libultra.o
 .MIPS.abiflags
                0x0000000000000000       0x18 build/libultra/libultra.o
 .pdr           0x0000000000000000        0x0 build/libultra/libultra.o
 .gnu.attributes
                0x0000000000000000       0x10 build/libultra/libultra.o
 .options       0x0000000000000000       0x20 build/rarezip/rarezip.o
 .reginfo       0x0000000000000000       0x18 build/rarezip/rarezip.o
 .options       0x0000000000000000       0x20 build/game/initgamedata.o
 .reginfo       0x0000000000000000       0x18 build/game/initgamedata.o
 .options       0x0000000000000000       0x20 build/game/initweaponanigroups.o
 .reginfo       0x0000000000000000       0x18 build/game/initweaponanigroups.o
 .mdebug        0x0000000000000000      0x350 build/game/initweaponanigroups.o
 .options       0x0000000000000000       0x20 build/game/initactorpropstuff.o
 .reginfo       0x0000000000000000       0x18 build/game/initactorpropstuff.o
 .options       0x0000000000000000       0x20 build/game/initnull_0009D0.o
 .reginfo       0x0000000000000000       0x18 build/game/initnull_0009D0.o
 .mdebug        0x0000000000000000      0x28c build/game/initnull_0009D0.o
 .options       0x0000000000000000       0x20 build/game/initunk_0009E0.o
 .reginfo       0x0000000000000000       0x18 build/game/initunk_0009E0.o
 .mdebug        0x0000000000000000      0x2f0 build/game/initunk_0009E0.o
 .options       0x0000000000000000       0x20 build/game/initanitable.o
 .reginfo       0x0000000000000000       0x18 build/game/initanitable.o
 .options       0x0000000000000000       0x20 build/game/initunk_000B60.o
 .reginfo       0x0000000000000000       0x18 build/game/initunk_000B60.o
 .options       0x0000000000000000       0x20 build/game/setguscale.o
 .reginfo       0x0000000000000000       0x18 build/game/setguscale.o
 .options       0x0000000000000000       0x20 build/game/initnull_000BC0.o
 .reginfo       0x0000000000000000       0x18 build/game/initnull_000BC0.o
 .mdebug        0x0000000000000000      0x28c build/game/initnull_000BC0.o
 .options       0x0000000000000000       0x20 build/game/initimages.o
 .reginfo       0x0000000000000000       0x18 build/game/initimages.o
 .options       0x0000000000000000       0x20 build/game/initintromatrices.o
 .reginfo       0x0000000000000000       0x18 build/game/initintromatrices.o
 .options       0x0000000000000000       0x20 build/game/initmenus.o
 .reginfo       0x0000000000000000       0x18 build/game/initmenus.o
 .options       0x0000000000000000       0x20 build/game/initguards.o
 .reginfo       0x0000000000000000       0x18 build/game/initguards.o
 .options       0x0000000000000000       0x20 build/game/deb_loadallmodels.o
 .reginfo       0x0000000000000000       0x18 build/game/deb_loadallmodels.o
 .options       0x0000000000000000       0x20 build/game/initobjects.o
 .reginfo       0x0000000000000000       0x18 build/game/initobjects.o
 .options       0x0000000000000000       0x20 build/game/prop.o
 .reginfo       0x0000000000000000       0x18 build/game/prop.o
 .options       0x0000000000000000       0x20 build/game/objective.o
 .reginfo       0x0000000000000000       0x18 build/game/objective.o
 .options       0x0000000000000000       0x20 build/game/ejectedcartridges.o
 .reginfo       0x0000000000000000       0x18 build/game/ejectedcartridges.o
 .options       0x0000000000000000       0x20 build/game/initBondDATA.o
 .reginfo       0x0000000000000000       0x18 build/game/initBondDATA.o
 .options       0x0000000000000000       0x20 build/game/initunk_005450.o
 .reginfo       0x0000000000000000       0x18 build/game/initunk_005450.o
 .options       0x0000000000000000       0x20 build/game/initunk_005520.o
 .reginfo       0x0000000000000000       0x18 build/game/initunk_005520.o
 .options       0x0000000000000000       0x20 build/game/initcameraandthrown.o
 .reginfo       0x0000000000000000       0x18 build/game/initcameraandthrown.o
 .options       0x0000000000000000       0x20 build/game/inititemslots.o
 .reginfo       0x0000000000000000       0x18 build/game/inititemslots.o
 .options       0x0000000000000000       0x20 build/game/initBondDATAdefaults.o
 .reginfo       0x0000000000000000       0x18 build/game/initBondDATAdefaults.o
 .options       0x0000000000000000       0x20 build/game/initpathtablesomething.o
 .reginfo       0x0000000000000000       0x18 build/game/initpathtablesomething.o
 .options       0x0000000000000000       0x20 build/game/initpathtablelinks.o
 .reginfo       0x0000000000000000       0x18 build/game/initpathtablelinks.o
 .options       0x0000000000000000       0x20 build/game/initexplosioncasing.o
 .reginfo       0x0000000000000000       0x18 build/game/initexplosioncasing.o
 .options       0x0000000000000000       0x20 build/game/initunk_007180.o
 .reginfo       0x0000000000000000       0x18 build/game/initunk_007180.o
 .options       0x0000000000000000       0x20 build/game/initunk_007290.o
 .reginfo       0x0000000000000000       0x18 build/game/initunk_007290.o
 .options       0x0000000000000000       0x20 build/game/initunk_0072B0.o
 .reginfo       0x0000000000000000       0x18 build/game/initunk_0072B0.o
 .options       0x0000000000000000       0x20 build/game/initmttex.o
 .reginfo       0x0000000000000000       0x18 build/game/initmttex.o
 .options       0x0000000000000000       0x20 build/game/initunk_0073B0.o
 .reginfo       0x0000000000000000       0x18 build/game/initunk_0073B0.o
 .options       0x0000000000000000       0x20 build/game/initunk_007460.o
 .reginfo       0x0000000000000000       0x18 build/game/initunk_007460.o
 .options       0x0000000000000000       0x20 build/game/cleanup_alarms.o
 .reginfo       0x0000000000000000       0x18 build/game/cleanup_alarms.o
 .mdebug        0x0000000000000000      0x38c build/game/cleanup_alarms.o
 .options       0x0000000000000000       0x20 build/game/cleanup_objects.o
 .reginfo       0x0000000000000000       0x18 build/game/cleanup_objects.o
 .options       0x0000000000000000       0x20 build/game/cleanup_objectives.o
 .reginfo       0x0000000000000000       0x18 build/game/cleanup_objectives.o
 .options       0x0000000000000000       0x20 build/game/cleanupSFXRelated.o
 .reginfo       0x0000000000000000       0x18 build/game/cleanupSFXRelated.o
 .mdebug        0x0000000000000000      0x3f0 build/game/cleanupSFXRelated.o
 .options       0x0000000000000000       0x20 build/game/playerstats_007770.o
 .reginfo       0x0000000000000000       0x18 build/game/playerstats_007770.o
 .options       0x0000000000000000       0x20 build/game/unk_007800.o
 .reginfo       0x0000000000000000       0x18 build/game/unk_007800.o
 .options       0x0000000000000000       0x20 build/game/unk_007920.o
 .reginfo       0x0000000000000000       0x18 build/game/unk_007920.o
 .options       0x0000000000000000       0x20 build/game/null_007970.o
 .reginfo       0x0000000000000000       0x18 build/game/null_007970.o
 .mdebug        0x0000000000000000      0x28c build/game/null_007970.o
 .options       0x0000000000000000       0x20 build/game/unk_007980.o
 .reginfo       0x0000000000000000       0x18 build/game/unk_007980.o
 .options       0x0000000000000000       0x20 build/game/intro_logos.o
 .reginfo       0x0000000000000000       0x18 build/game/intro_logos.o
 .options       0x0000000000000000       0x20 build/game/mainmenu.o
 .reginfo       0x0000000000000000       0x18 build/game/mainmenu.o
 .options       0x0000000000000000       0x20 build/game/unk_01B0E0.o
 .reginfo       0x0000000000000000       0x18 build/game/unk_01B0E0.o
 .options       0x0000000000000000       0x20 build/game/unk_01B240.o
 .reginfo       0x0000000000000000       0x18 build/game/unk_01B240.o
 .options       0x0000000000000000       0x20 build/game/unk_01BAE0.o
 .reginfo       0x0000000000000000       0x18 build/game/unk_01BAE0.o
 .options       0x0000000000000000       0x20 build/game/blood_animation.o
 .reginfo       0x0000000000000000       0x18 build/game/blood_animation.o
 .options       0x0000000000000000       0x20 build/game/blood_decrypt.o
 .reginfo       0x0000000000000000       0x18 build/game/blood_decrypt.o
 .options       0x0000000000000000       0x20 build/game/eeprom.o
 .reginfo       0x0000000000000000       0x18 build/game/eeprom.o
 .options       0x0000000000000000       0x20 build/game/actor.o
 .reginfo       0x0000000000000000       0x18 build/game/actor.o
 .options       0x0000000000000000       0x20 build/game/actionblock.o
 .reginfo       0x0000000000000000       0x18 build/game/actionblock.o
 .options       0x0000000000000000       0x20 build/game/loadobjectmodel.o
 .reginfo       0x0000000000000000       0x18 build/game/loadobjectmodel.o
 .options       0x0000000000000000       0x20 build/game/objective_status.o
 .reginfo       0x0000000000000000       0x18 build/game/objective_status.o
 .options       0x0000000000000000       0x20 build/game/sin.o
 .reginfo       0x0000000000000000       0x18 build/game/sin.o
 .options       0x0000000000000000       0x20 build/game/unk_057FD0.o
 .reginfo       0x0000000000000000       0x18 build/game/unk_057FD0.o
 .options       0x0000000000000000       0x20 build/game/unk_05A9E0.o
 .reginfo       0x0000000000000000       0x18 build/game/unk_05A9E0.o
 .options       0x0000000000000000       0x20 build/game/convertangleusinginverse.o
 .reginfo       0x0000000000000000       0x18 build/game/convertangleusinginverse.o
 .options       0x0000000000000000       0x20 build/game/unk_05AB70.o
 .reginfo       0x0000000000000000       0x18 build/game/unk_05AB70.o
 .options       0x0000000000000000       0x20 build/game/unk_05ACB0.o
 .reginfo       0x0000000000000000       0x18 build/game/unk_05ACB0.o
 .options       0x0000000000000000       0x20 build/game/unk_05AE00.o
 .reginfo       0x0000000000000000       0x18 build/game/unk_05AE00.o
 .options       0x0000000000000000       0x20 build/game/unk_05B1E0.o
 .reginfo       0x0000000000000000       0x18 build/game/unk_05B1E0.o
 .options       0x0000000000000000       0x20 build/game/truncf.o
 .reginfo       0x0000000000000000       0x18 build/game/truncf.o
 .options       0x0000000000000000       0x20 build/game/unk_05C440.o
 .reginfo       0x0000000000000000       0x18 build/game/unk_05C440.o
 .options       0x0000000000000000       0x20 build/game/bondview.o
 .reginfo       0x0000000000000000       0x18 build/game/bondview.o
 .options       0x0000000000000000       0x20 build/game/objecthandler.o
 .reginfo       0x0000000000000000       0x18 build/game/objecthandler.o
 .options       0x0000000000000000       0x20 build/game/objecthandler_2.o
 .reginfo       0x0000000000000000       0x18 build/game/objecthandler_2.o
 .options       0x0000000000000000       0x20 build/game/othermodemicrocode.o
 .reginfo       0x0000000000000000       0x18 build/game/othermodemicrocode.o
 .options       0x0000000000000000       0x20 build/game/bond.o
 .reginfo       0x0000000000000000       0x18 build/game/bond.o
 .options       0x0000000000000000       0x20 build/game/unk_08DBB0.o
 .reginfo       0x0000000000000000       0x18 build/game/unk_08DBB0.o
 .options       0x0000000000000000       0x20 build/game/debugmenu_08FE00.o
 .reginfo       0x0000000000000000       0x18 build/game/debugmenu_08FE00.o
 .options       0x0000000000000000       0x20 build/game/debugmenu_090490.o
 .reginfo       0x0000000000000000       0x18 build/game/debugmenu_090490.o
 .options       0x0000000000000000       0x20 build/game/unk_091080.o
 .reginfo       0x0000000000000000       0x18 build/game/unk_091080.o
 .options       0x0000000000000000       0x20 build/game/cheat_buttons_objectrelated.o
 .reginfo       0x0000000000000000       0x18 build/game/cheat_buttons_objectrelated.o
 .options       0x0000000000000000       0x20 build/game/unk_092890.o
 .reginfo       0x0000000000000000       0x18 build/game/unk_092890.o
 .options       0x0000000000000000       0x20 build/game/unk_092E50.o
 .reginfo       0x0000000000000000       0x18 build/game/unk_092E50.o
 .options       0x0000000000000000       0x20 build/game/unk_093880.o
 .reginfo       0x0000000000000000       0x18 build/game/unk_093880.o
 .options       0x0000000000000000       0x20 build/game/unk_09B600.o
 .reginfo       0x0000000000000000       0x18 build/game/unk_09B600.o
 .options       0x0000000000000000       0x20 build/game/unk_09B740.o
 .reginfo       0x0000000000000000       0x18 build/game/unk_09B740.o
 .options       0x0000000000000000       0x20 build/game/unk_09B7A0.o
 .reginfo       0x0000000000000000       0x18 build/game/unk_09B7A0.o
 .options       0x0000000000000000       0x20 build/game/unk_09C250.o
 .reginfo       0x0000000000000000       0x18 build/game/unk_09C250.o
 .options       0x0000000000000000       0x20 build/game/unk_0A1DA0.o
 .reginfo       0x0000000000000000       0x18 build/game/unk_0A1DA0.o
 .options       0x0000000000000000       0x20 build/game/watch.o
 .reginfo       0x0000000000000000       0x18 build/game/watch.o
 .options       0x0000000000000000       0x20 build/game/textrelated.o
 .reginfo       0x0000000000000000       0x18 build/game/textrelated.o
 .options       0x0000000000000000       0x20 build/game/stan.o
 .reginfo       0x0000000000000000       0x18 build/game/stan.o
 .options       0x0000000000000000       0x20 build/game/unk_0B3200.o
 .reginfo       0x0000000000000000       0x18 build/game/unk_0B3200.o
 .options       0x0000000000000000       0x20 build/game/bg.o
 .reginfo       0x0000000000000000       0x18 build/game/bg.o
 .options       0x0000000000000000       0x20 build/game/fog.o
 .reginfo       0x0000000000000000       0x18 build/game/fog.o
 .options       0x0000000000000000       0x20 build/game/lightfixture.o
 .reginfo       0x0000000000000000       0x18 build/game/lightfixture.o
 .options       0x0000000000000000       0x20 build/game/unk_0BC530.o
 .reginfo       0x0000000000000000       0x18 build/game/unk_0BC530.o
 .options       0x0000000000000000       0x20 build/game/ob.o
 .reginfo       0x0000000000000000       0x18 build/game/ob.o
 .options       0x0000000000000000       0x20 build/game/dyn.o
 .reginfo       0x0000000000000000       0x18 build/game/dyn.o
 .options       0x0000000000000000       0x20 build/game/lvl.o
 .reginfo       0x0000000000000000       0x18 build/game/lvl.o
 .options       0x0000000000000000       0x20 build/game/lvl_2.o
 .reginfo       0x0000000000000000       0x18 build/game/lvl_2.o
 .options       0x0000000000000000       0x20 build/game/unk_0C0A70.o
 .reginfo       0x0000000000000000       0x18 build/game/unk_0C0A70.o
 .options       0x0000000000000000       0x20 build/game/mp_music.o
 .reginfo       0x0000000000000000       0x18 build/game/mp_music.o
 .options       0x0000000000000000       0x20 build/game/lvl_text.o
 .reginfo       0x0000000000000000       0x18 build/game/lvl_text.o
 .options       0x0000000000000000       0x20 build/game/mp_watch.o
 .reginfo       0x0000000000000000       0x18 build/game/mp_watch.o
 .options       0x0000000000000000       0x20 build/game/radar.o
 .reginfo       0x0000000000000000       0x18 build/game/radar.o
 .options       0x0000000000000000       0x20 build/game/mp_weapon.o
 .reginfo       0x0000000000000000       0x18 build/game/mp_weapon.o
 .options       0x0000000000000000       0x20 build/game/image.o
 .reginfo       0x0000000000000000       0x18 build/game/image.o
 .options       0x0000000000000000       0x20 build/game/image_bank.o
 .reginfo       0x0000000000000000       0x18 build/game/image_bank.o
 .options       0x0000000000000000       0x20 build/game/unk_0CC4C0.o
 .reginfo       0x0000000000000000       0x18 build/game/unk_0CC4C0.o
 .options       0x0000000000000000       0x20 build/game/decompress.o
 .reginfo       0x0000000000000000       0x18 build/game/decompress.o
 .options       0x0000000000000000       0x20 build/game/zlib.o
 .reginfo       0x0000000000000000       0x18 build/game/zlib.o
 .options       0x0000000000000000       0x20 build/game/rsp.o
 .reginfo       0x0000000000000000       0x18 build/game/rsp.o
 .options       0x0000000000000000       0x20 build/game/indy_comms.o
 .reginfo       0x0000000000000000       0x18 build/game/indy_comms.o
 .options       0x0000000000000000       0x20 build/game/indy_0D0180.o
 .reginfo       0x0000000000000000       0x18 build/game/indy_0D0180.o
 .options       0x0000000000000000       0x20 build/game/game_debug.o
 .reginfo       0x0000000000000000       0x18 build/game/game_debug.o
 .gptab.data    0x0000000000000000       0x18 build/game/game_debug.o
 .mdebug        0x0000000000000000      0x70c build/game/game_debug.o
 .options       0x0000000000000000       0x20 build/game/compiletime.o
 .reginfo       0x0000000000000000       0x18 build/game/compiletime.o
 .mdebug        0x0000000000000000      0x294 build/game/compiletime.o
 .options       0x0000000000000000       0x20 build/game/unk_0D1AC0.o
 .reginfo       0x0000000000000000       0x18 build/game/unk_0D1AC0.o
 .options       0x0000000000000000       0x20 build/game/viewport.o
 .reginfo       0x0000000000000000       0x18 build/game/viewport.o
 .options       0x0000000000000000       0x20 build/game/music_0D2720.o
 .reginfo       0x0000000000000000       0x18 build/game/music_0D2720.o
 .options       0x0000000000000000       0x20 build/game/spectrum.o
 .reginfo       0x0000000000000000       0x18 build/game/spectrum.o
 .data          0x0000000000000000        0x0 build/assets/romfiles.o
 .reginfo       0x0000000000000000       0x18 build/assets/romfiles.o
 .MIPS.abiflags
                0x0000000000000000       0x18 build/assets/romfiles.o
 .pdr           0x0000000000000000        0x0 build/assets/romfiles.o
 .gnu.attributes
                0x0000000000000000       0x10 build/assets/romfiles.o
 .data          0x0000000000000000        0x0 build/assets/ramrom/ramrom.o
 .reginfo       0x0000000000000000       0x18 build/assets/ramrom/ramrom.o
 .MIPS.abiflags
                0x0000000000000000       0x18 build/assets/ramrom/ramrom.o
 .pdr           0x0000000000000000        0x0 build/assets/ramrom/ramrom.o
 .gnu.attributes
                0x0000000000000000       0x10 build/assets/ramrom/ramrom.o
 .data          0x0000000000000000        0x0 build/assets/font/font.o
 .reginfo       0x0000000000000000       0x18 build/assets/font/font.o
 .MIPS.abiflags
                0x0000000000000000       0x18 build/assets/font/font.o
 .pdr           0x0000000000000000        0x0 build/assets/font/font.o
 .gnu.attributes
                0x0000000000000000       0x10 build/assets/font/font.o
 .data          0x0000000000000000        0x0 build/assets/music/music.o
 .reginfo       0x0000000000000000       0x18 build/assets/music/music.o
 .MIPS.abiflags
                0x0000000000000000       0x18 build/assets/music/music.o
 .pdr           0x0000000000000000        0x0 build/assets/music/music.o
 .musicdecompressed
                0x0000000000000000    0x32538 build/assets/music/music.o
 .gnu.attributes
                0x0000000000000000       0x10 build/assets/music/music.o
 .data          0x0000000000000000        0x0 build/assets/obseg/ob_seg.o
 .reginfo       0x0000000000000000       0x18 build/assets/obseg/ob_seg.o
 .MIPS.abiflags
                0x0000000000000000       0x18 build/assets/obseg/ob_seg.o
 .pdr           0x0000000000000000        0x0 build/assets/obseg/ob_seg.o
 .gnu.attributes
                0x0000000000000000       0x10 build/assets/obseg/ob_seg.o
 .data          0x0000000000000000        0x0 build/assets/images/images.o
 .reginfo       0x0000000000000000       0x18 build/assets/images/images.o
 .MIPS.abiflags
                0x0000000000000000       0x18 build/assets/images/images.o
 .pdr           0x0000000000000000        0x0 build/assets/images/images.o
 .gnu.attributes
                0x0000000000000000       0x10 build/assets/images/images.o
 .reginfo       0x0000000000000000       0x18 build/rspboot.o
 .MIPS.abiflags
                0x0000000000000000       0x18 build/rspboot.o
 .pdr           0x0000000000000000        0x0 build/rspboot.o
 .gnu.attributes
                0x0000000000000000       0x10 build/rspboot.o
 .reginfo       0x0000000000000000       0x18 build/gspboot.o
 .MIPS.abiflags
                0x0000000000000000       0x18 build/gspboot.o
 .pdr           0x0000000000000000        0x0 build/gspboot.o
 .gnu.attributes
                0x0000000000000000       0x10 build/gspboot.o
 .reginfo       0x0000000000000000       0x18 build/aspboot.o
 .MIPS.abiflags
                0x0000000000000000       0x18 build/aspboot.o
 .pdr           0x0000000000000000        0x0 build/aspboot.o
 .gnu.attributes
                0x0000000000000000       0x10 build/aspboot.o

Memory Configuration

Name             Origin             Length             Attributes
*default*        0x0000000000000000 0xffffffffffffffff

Linker script and memory map

                0x0000000000000002                OS_VI_NTSC_LAN1 = 0x2
                0x0000000000000010                OS_VI_PAL_LAN1 = 0x10
                0x0000000000000000                _bootSegmentRomStart = 0x0
                0x0000000000001000                _bootSegmentRomEnd = 0x1000
                0x0000000000001000                _startSegmentRomStart = 0x1000
                0x0000000000001050                _startSegmentRomEnd = 0x1050
                0x0000000000001050                _codeSegmentRomStart = 0x1050
                0x0000000000021990                _codeSegmentRomEnd = 0x21990
                0x0000000000021990                _cdataSegmentRomStart = 0x21990
                0x0000000000033590                _cdataSegmentRomEnd = 0x33590
                0x0000000000033590                _rarezipSegmentRomStart = 0x33590
                0x0000000000034b30                _rarezipSegmentRomEnd = 0x34b30
                0x0000000000117880                _unknown117880SegmentRomStart = 0x117880
                0x0000000000117940                _unknown117880SegmentRomEnd = 0x117940
                0x0000000000117940                _unknown117940SegmentRomStart = 0x117940
                0x0000000000123040                _unknown117940SegmentRomEnd = 0x123040
                0x0000000000123040                _unknown123040SegmentRomStart = 0x123040
                0x0000000000124ac0                _unknown123040SegmentRomEnd = 0x124ac0
                0x0000000000124ac0                _animation_tableSegmentRomStart = 0x124ac0
                0x000000000028e980                _animation_tableSegmentRomEnd = 0x28e980
                0x000000000028e980                _animation_dataSegmentRomStart = 0x28e980
                0x000000000029d160                _animation_dataSegmentRomEnd = 0x29d160
                0x000000000029d160                _GlobalimagetableSegmentRomStart = 0x29d160
                0x000000000029e560                _GlobalimagetableSegmentRomEnd = 0x29e560
                0x000000000029e560                _GlobalimagetablecmdblkSegmentRomStart = 0x29e560
                0x00000000002a4d50                _GlobalimagetablecmdblkSegmentRomEnd = 0x2a4d50
                0x00000000002bf2d0                _ramromDam1SegmentRomStart = 0x2bf2d0
                0x00000000002e63f0                _fonttablectlsmall1SegmentRomStart = 0x2e63f0
                0x00000000002e88a0                _fonttablectllarge1SegmentRomStart = 0x2e88a0
                0x00000000002ebde0                _sfxctlSegmentRomStart = 0x2ebde0
                0x00000000002f19a0                _sfxctlSegmentRomEnd = 0x2f19a0
                0x00000000002f19a0                _sfxtblSegmentRomStart = 0x2f19a0
                0x00000000003b4450                _sfxtblSegmentRomEnd = 0x3b4450
                0x00000000003b4450                _instrumentsctlSegmentRomStart = 0x3b4450
                0x00000000003b87f0                _instrumentsctlSegmentRomEnd = 0x3b87f0
                0x00000000003b87f0                _instrumentstblSegmentRomStart = 0x3b87f0
                0x0000000000419790                _instrumentstblSegmentRomEnd = 0x419790
                0x0000000000419790                _musicsampletblSegmentRomStart = 0x419790
                0x0000000004000000                _bootSegmentStart = 0x4000000
                0x0000000004001000                _bootSegmentEnd = 0x4001000
                0x00000000a4040000                SP_MEM_ADDR_REG = 0xa4040000
                0x00000000a4040004                SP_DRAM_ADDR_REG = 0xa4040004
                0x00000000a4040008                SP_RD_LEN_REG = 0xa4040008
                0x00000000a404000c                SP_WR_LEN_REG = 0xa404000c
                0x00000000a4040010                SP_STATUS_REG = 0xa4040010
                0x00000000a4080000                SP_PC_REG = 0xa4080000
                0x00000000a4300000                MI_INIT_MODE_REG = 0xa4300000
                0x00000000a4300000                MI_MODE_REG = MI_INIT_MODE_REG
                0x00000000a4300004                MI_VERSION_REG = 0xa4300004
                0x00000000a4300008                MI_INTR_REG = 0xa4300008
                0x00000000a430000c                MI_INTR_MASK_REG = 0xa430000c
                0x00000000a4400000                VI_STATUS_REG = 0xa4400000
                0x00000000a4400000                VI_CONTROL_REG = 0xa4400000
                0x00000000a4400004                VI_ORIGIN_REG = 0xa4400004
                0x00000000a4400004                VI_DRAM_ADDR_REG = 0xa4400004
                0x00000000a4400008                VI_WIDTH_REG = 0xa4400008
                0x00000000a4400008                VI_H_WIDTH_REG = 0xa4400008
                0x00000000a440000c                VI_INTR_REG = 0xa440000c
                0x00000000a440000c                VI_V_INTER_REG = 0xa440000c
                0x00000000a4400010                VI_CURRENT_REG = 0xa4400010
                0x00000000a4400010                VI_V_CURRENT_LINE_REG = 0xa4400010
                0x00000000a4400014                VI_BURST_REG = 0xa4400014
                0x00000000a4400014                VI_TIMING_REG = 0xa4400014
                0x00000000a4400018                VI_V_SYNC_REG = 0xa4400018
                0x00000000a440001c                VI_H_SYNC_REG = 0xa440001c
                0x00000000a4400020                VI_LEAP_REG = 0xa4400020
                0x00000000a4400020                VI_H_SYNC_LEAP_REG = 0xa4400020
                0x00000000a4400024                VI_H_START_REG = 0xa4400024
                0x00000000a4400024                VI_H_VIDEO_REG = 0xa4400024
                0x00000000a4400028                VI_V_START_REG = 0xa4400028
                0x00000000a4400028                VI_V_VIDEO_REG = 0xa4400028
                0x00000000a440002c                VI_V_BURST_REG = 0xa440002c
                0x00000000a4400030                VI_X_SCALE_REG = 0xa4400030
                0x00000000a4400034                VI_Y_SCALE_REG = 0xa4400034
                0x00000000a4500004                AI_LEN_REG = 0xa4500004
                0x00000000a4500008                AI_CONTROL_REG = 0xa4500008
                0x00000000a450000c                AI_STATUS_REG = 0xa450000c
                0x00000000a4500010                AI_DACRATE_REG = 0xa4500010
                0x00000000a4500014                AI_BITRATE_REG = 0xa4500014
                0x00000000a4600000                PI_DRAM_ADDR_REG = 0xa4600000
                0x00000000a4600004                PI_CART_ADDR_REG = 0xa4600004
                0x00000000a4600008                PI_RD_LEN_REG = 0xa4600008
                0x00000000a460000c                PI_WR_LEN_REG = 0xa460000c
                0x00000000a4600010                PI_STATUS_REG = 0xa4600010
                0x00000000a4600014                PI_BSD_DOM1_LAT_REG = 0xa4600014
                0x00000000a4600014                PI_DOMAIN1_REG = 0xa4600014
                0x00000000a4600018                PI_BSD_DOM1_PWD_REG = 0xa4600018
                0x00000000a460001c                PI_BSD_DOM1_PGS_REG = 0xa460001c
                0x00000000a4600020                PI_BSD_DOM1_RLS_REG = 0xa4600020
                0x00000000a4600024                PI_BSD_DOM2_LAT_REG = 0xa4600024
                0x00000000a4600024                PI_DOMAIN2_REG = 0xa4600024
                0x00000000a4600028                PI_BSD_DOM2_PWD_REG = 0xa4600028
                0x00000000a460002c                PI_BSD_DOM2_PGS_REG = 0xa460002c
                0x00000000a4600030                PI_BSD_DOM2_RLS_REG = 0xa4600030
                0x00000000a4800000                SI_DRAM_ADDR_REG = 0xa4800000
                0x00000000a4800004                SI_PIF_ADDR_RD64B_REG = 0xa4800004
                0x00000000a4800010                SI_PIF_ADDR_WR64B_REG = 0xa4800010
                0x00000000a4800018                SI_STATUS_REG = 0xa4800018
                0x0000000070000450                _codeSegmentVaddrStart = 0x70000450
                0x0000000070001bb0                set_hardwire_TLB_to_2 = 0x70001bb0
                0x0000000070020d90                _codeSegmentVaddrEnd = 0x70020d90
                0x0000000070200000                _rarezipSegmentStart = 0x70200000
                0x000000007020159c                _rarezipSegmentEnd = 0x7020159c
                0x000000007f090490                display_debug_menu_text_onscreen = 0x7f090490
                0x000000007f0905a0                debug_menu_processor = 0x7f0905a0
                0x000000007f090f34                get_memusage_display_flag = 0x7f090f34
                0x000000007f090fdc                get_linemode_flag = 0x7f090fdc
                0x000000007f09106c                get_debug_taskgrab_val = 0x7f09106c
                0x0000000080000300                osTvType = 0x80000300
                0x0000000080000308                osRomBase = 0x80000308
                0x000000008000030c                osResetType = 0x8000030c
                0x000000008000031c                osAppNMIBuffer = 0x8000031c
                0x0000000080000400                _codeSegmentStart = 0x80000400
                0x0000000080020d90                _codeSegmentEnd = 0x80020d90
                0x0000000080020d90                _cdataSegmentVaddrStart = 0x80020d90
                0x0000000080032c20                D_80032C20 = 0x80032c20
                0x0000000080035d40                D_80035D40 = 0x80035d40
                0x0000000080035d80                D_80035D80 = 0x80035d80
                0x0000000080035d8c                D_80035D8C = 0x80035d8c
                0x0000000080035d98                D_80035D98 = 0x80035d98
                0x0000000080035da4                D_80035DA4 = 0x80035da4
                0x0000000080035db0                D_80035DB0 = 0x80035db0
                0x0000000080035dbc                D_80035DBC = 0x80035dbc
                0x0000000080035dc8                D_80035DC8 = 0x80035dc8
                0x0000000080035dd4                D_80035DD4 = 0x80035dd4
                0x0000000080035de0                D_80035DE0 = 0x80035de0
                0x0000000080035dec                D_80035DEC = 0x80035dec
                0x0000000080035df8                D_80035DF8 = 0x80035df8
                0x00000000800368d4                D_800368D4 = 0x800368d4
                0x00000000800368d8                D_800368D8 = 0x800368d8
                0x000000008003e14c                D_8003E14C = 0x8003e14c
                0x000000008003f81c                D_8003F81C = 0x8003f81c
                0x000000008003fcc0                D_8003FCC0 = 0x8003fcc0
                0x000000008003fd28                D_8003FD28 = 0x8003fd28
                0x000000008003fda0                D_8003FDA0 = 0x8003fda0
                0x0000000080040284                D_80040284 = 0x80040284
                0x00000000800407fc                D_800407FC = 0x800407fc
                0x0000000080040800                D_80040800 = 0x80040800
                0x0000000080040804                D_80040804 = 0x80040804
                0x0000000080040808                D_80040808 = 0x80040808
                0x0000000080040900                D_80040900 = 0x80040900
                0x0000000080040980                D_80040980 = 0x80040980
                0x0000000080040994                D_80040994 = 0x80040994
                0x0000000080040998                D_80040998 = 0x80040998
                0x000000008004099c                D_8004099C = 0x8004099c
                0x0000000080040c44                D_80040C44 = 0x80040c44
                0x0000000080041415                D_80041415 = 0x80041415
                0x0000000080041417                D_80041417 = 0x80041417
                0x0000000080041464                D_80041464 = 0x80041464
                0x0000000080041467                D_80041467 = 0x80041467
                0x00000000800414b4                D_800414B4 = 0x800414b4
                0x0000000080058378                D_80058378 = 0x80058378
                0x000000008005c820                gspFast3DDataStart = 0x8005c820
                0x000000008005d2e0                _cdataSegmentVaddrEnd = 0x8005d2e0
                0x00000000800669d2                byte_CODE_bss_800669D2 = 0x800669d2
                0x00000000800669d4                dword_CODE_bss_800669D4 = 0x800669d4
                0x00000000800669ea                byte_CODE_bss_800669EA = 0x800669ea
                0x00000000800669ec                dword_CODE_bss_800669EC = 0x800669ec
                0x0000000080079f4c                D_80079F4C = 0x80079f4c
                0x0000000080079f54                D_80079F54 = 0x80079f54
                0x0000000080079fbc                D_80079FBC = 0x80079fbc
                0x0000000080079fc4                D_80079FC4 = 0x80079fc4
                0x000000008007a02c                D_8007A02C = 0x8007a02c
                0x000000008007a034                D_8007A034 = 0x8007a034
                0x000000008007a0a4                D_8007A0A4 = 0x8007a0a4
                0x000000008007a0de                D_8007A0DE = 0x8007a0de
                0x00000000800825b8                dword_CODE_bss_800825B8 = 0x800825b8
                0x000000008008e360                room_model_buffer = 0x8008e360
                0x0000000080300000                _decompressBuffer = 0x80300000
                0x00000000803ab400                sp_boot = 0x803ab400
                0x00000000803ab410                sp_rmon = 0x803ab410
                0x00000000803ab710                sp_idle = 0x803ab710
                0x00000000803ab750                sp_shed = 0x803ab750
                0x00000000803ab950                sp_main = 0x803ab950
                0x00000000803b3950                sp_audi = 0x803b3950
                0x00000000803b4950                sp_debug = 0x803b4950
                0x00000000803b5000                cfb_16_a = 0x803b5000
                0x00000000803da800                cfb_16_b = 0x803da800
                0x00000000a4100000                DPC_REG_BASE = 0xa4100000
                0x00000000a4100000                DPC_START_REG = 0xa4100000
                0x00000000a4100004                DPC_END_REG = 0xa4100004
                0x00000000a4100008                DPC_CURRENT_REG = 0xa4100008
                0x00000000a410000c                DPC_STATUS_REG = 0xa410000c
                0x00000000a4100010                DPC_CLOCK_REG = 0xa4100010
                0x00000000a4100014                DPC_BUFBUSY_REG = 0xa4100014
                0x00000000a4100018                DPC_PIPEBUSY_REG = 0xa4100018
                0x00000000a410001c                DPC_TMEM_REG = 0xa410001c
                0x00000000a5000508                ASIC_STATUS = 0xa5000508
                0x00000000a5000510                ASIC_BM_STATUS = 0xa5000510
                0x0000000000000000                __romPos = 0x0
                0x0000000000000000                rom_start = .

.header         0x0000000004000000       0x40 load address 0x0000000000000000
 build/rom_header.o(.data)
 .data          0x0000000004000000       0x40 build/rom_header.o
                [0x0000000000be648a]                __romPos = (__romPos + SIZEOF (.header))

.data           0x0000000004000040        0x0 load address 0x0000000000000040
 .data          0x0000000004000040        0x0 build/bootcode.o
 .data          0x0000000004000040        0x0 build/_start.o
 .data          0x0000000004000040        0x0 build/rspboot.o

.boot           0x0000000004000040      0xfc0 load address 0x0000000000000040
 build/bootcode.o(.text)
 .text          0x0000000004000040      0xfc0 build/bootcode.o
                0x0000000004000688                func_00000648
                0x0000000004000690                func_00000650
                0x0000000004000778                func_04000778
                0x0000000004000880                func_04000880
                0x000000000400090c                func_0400090C
                0x0000000004000980                func_04000980
                0x0000000004000a40                func_04000A40
                0x0000000004000ad0                func_04000AD0
                [0x0000000000be648a]                __romPos = (__romPos + SIZEOF (.boot))
                0x0000000000000400                __ramPos = 0x400

.text_start     0x0000000080000400       0x50 load address 0x0000000000001000
 build/_start.o(.text)
 .text          0x0000000080000400       0x50 build/_start.o
                0x0000000080000400                _start
                [0x0000000000be648a]                __romPos = (__romPos + 0x50)
                [0x000000008008e360]                __ramPos = (__ramPos + 0x50)

.text_code      0x0000000070000450    0x20940 load address 0x0000000000001050
 build/boot.o(.text)
 .text          0x0000000070000450       0xc0 build/boot.o
                0x0000000070000450                boot
                0x00000000700004bc                get_cdataSegmentVaddrStart
                0x00000000700004c8                get_cdataSegmentRomStart
                0x00000000700004d4                get_cdataSegmentRomEnd
                0x00000000700004e0                get_rarezipSegmentRomStart
                0x00000000700004ec                get_rarezipSegmentRomEnd
                0x00000000700004f8                jump_decompressfile
 build/init.o(.text)
 .text          0x0000000070000510      0x460 build/init.o
                0x0000000070000510                init
                0x00000000700006f0                set_stack_entry
                0x00000000700006fc                set_hw_address_and_unknown
                0x0000000070000718                thread1_idle
                0x0000000070000738                start_idle_thread
                0x0000000070000790                start_rmon_thread
                0x00000000700007ec                init_scheduler
                0x000000007000089c                thread3_main
                0x0000000070000908                setuplastentryofdebughandler
 build/sched.o(.text)
 .text          0x0000000070000970      0xe10 build/sched.o
                0x0000000070000970                activate_stderr
                0x000000007000097c                enable_stderr
                0x0000000070000988                permit_stderr
                0x0000000070000994                setUserCompareValue
                0x00000000700009a0                CheckDisplayErrorBuffer
                0x00000000700009f8                CheckDisplayErrorBufferEvery16Frames
                0x0000000070000a88                osCreateLog
                0x0000000070000aac                osCreateScheduler
                0x0000000070000c14                osScAddClient
                0x0000000070000c70                osScRemoveClient
                0x0000000070000cf8                osScGetCmdQ
                0x0000000070000d00                __scMain
                0x0000000070000eb4                __scHandleRetrace
                0x0000000070001014                __scHandleRSP
                0x000000007000111c                get_counters
                0x0000000070001128                __scHandleRDP
                0x00000000700011e0                __scTaskReady
                0x0000000070001230                __scTaskComplete
                0x00000000700013d8                __scAppendList
                0x0000000070001440                __scExec
                0x0000000070001560                __scYield
                0x000000007000159c                __scSchedule
 build/osMapTLB.o(.text)
 .text          0x0000000070001780       0x60 build/osMapTLB.o
                0x0000000070001780                osMapTLBRdb
 build/tlb_manage.o(.text)
 .text          0x00000000700017e0      0x330 build/tlb_manage.o
                0x00000000700017e0                establish_TLB_buffer_management_table
                0x0000000070001898                mp_tlb_related
                0x00000000700018c0                return_TLB_index_for_entry
                0x0000000070001920                find_remove_TLB_entry
                0x0000000070001954                remove_TLB_entry_from_table
                0x00000000700019d8                translate_load_rom_from_TLBaddress
                0x0000000070001af8                return_ptr_TLBmemory
 build/tlb_random.o(.text)
 .text          0x0000000070001b10       0x50 build/tlb_random.o
                0x0000000070001b10                return_tlb_random_value
 build/tlb_resolve.o(.text)
 .text          0x0000000070001b60       0x50 build/tlb_resolve.o
                0x0000000070001b60                resolve_TLBaddress_for_InvalidHit
 build/tlb_hardware.o(.text)
 .text          0x0000000070001bb0       0x20 build/tlb_hardware.o
 build/audi.o(.text)
 .text          0x0000000070001bd0      0xb60 build/audi.o
                0x0000000070001bd0                amCreateAudioMgr
                0x0000000070001f58                startaudiThread
                0x0000000070001f7c                _amMain
                0x0000000070002244                _amHandleFrameMsg
                0x00000000700023e4                __amHandleDoneMsg
                0x0000000070002424                __amDMA
                0x00000000700025d8                __amDmaNew
                0x0000000070002610                __clearAudioDMA
 build/speed_graph.o(.text)
 .text          0x0000000070002730      0x930 build/speed_graph.o
                0x0000000070002730                displaylist_related
                0x00000000700027a4                video_related_1
                0x0000000070002810                video_related_2
                0x0000000070002854                video_related_3
                0x0000000070002958                display_speed_graph
                0x0000000070002cd8                video_DL_related_4
 build/video.o(.text)
 .text          0x0000000070003060     0x1cc0 build/video.o
                0x0000000070003060                init_video_settings
                0x0000000070003124                init_both_video_buffers
                0x0000000070003190                video_related_6
                0x00000000700031a0                video_related_7
                0x0000000070003298                video_related_8
                0x0000000070003b04                video_related_9
                0x0000000070003b64                receive_vi_c_msgs
                0x0000000070003bb0                setVideoWidthHeightToMode
                0x0000000070003c00                coloroutputmode_1
                0x0000000070003c10                coloroutputmode_0
                0x0000000070003c1c                get_video2buf_offset28
                0x0000000070003c2c                get_video1buf_offset28
                0x0000000070003c3c                set_video2buf_offset28
                0x0000000070003c4c                get_80060824
                0x0000000070003c58                video_related_F
                0x0000000070003eb4                video_related_10
                0x0000000070003ef8                insert_generic_fillrect
                0x0000000070003f64                setupscreensfornumplayers
                0x0000000070004384                set_D_800232A0
                0x0000000070004390                get_D_800232A0
                0x000000007000439c                set_D_8002329C
                0x00000000700043a8                get_D_8002329C
                0x00000000700043b4                set_video2_settings_offset_18_1A
                0x00000000700043d8                get_video2_settings_offset_18
                0x00000000700043e8                get_video2_settings_offset_1A
                0x00000000700043f8                set_video2_text_clip_size
                0x000000007000441c                get_video2_settings_txtClipW
                0x000000007000442c                get_video2_settings_txtClipH
                0x000000007000443c                set_video2_width_height
                0x000000007000449c                get_video2_settings_width
                0x00000000700044ac                get_video2_settings_height
                0x00000000700044bc                set_video2_ulx_uly
                0x0000000070004514                get_video2_settings_ulx
                0x0000000070004524                get_video2_settings_uly
                0x0000000070004534                set_video2_settings_offset_24
                0x0000000070004544                video_related_1F
                0x0000000070004590                video_related_21
                0x00000000700045dc                video_related_23
                0x00000000700045ec                video_related_24
                0x0000000070004650                set_page_height
                0x00000000700046ac                video_related_27
                0x00000000700046d0                set_setfillcolor
                0x0000000070004758                indy_grab_jpg_16bit
                0x00000000700048d4                indy_grab_jpg_32bit
                0x0000000070004a60                indy_grab_rgb_16bit
                0x0000000070004bb4                indy_grab_rgb_32bit
 build/deb.o(.text)
 .text          0x0000000070004d20      0xdf0 build/deb.o
                0x0000000070004d20                return_match_in_debug_notice_list
                0x0000000070004d80                get_entry_of_size_in_debug_notice_list
                0x0000000070004de0                add_new_entry_to_debug_notice_list
                0x0000000070004e2c                add_debug_notice_deb_c_debug
                0x0000000070004e60                get_ptr_debug_notice_list_entry
                0x0000000070004e98                scan_debug_notice_list_till_NULL
                0x0000000070004ebc                debug_stubbed
                0x0000000070004ec4                debug_removed
                0x0000000070004ee0                init_tlb
                0x0000000070004f54                thread5_tlb
                0x00000000700050ac                debug_related_8
                0x00000000700051e0                was_opcode_In_70000450_70020D90
                0x0000000070005258                return_strlen
                0x0000000070005294                indy_file_get_address_subsequent_data
                0x0000000070005340                scan_load_resourceID_from_indy_read_buf
                0x00000000700053c8                is_valid_indy_read_buf_resourceID
                0x00000000700053fc                debug_indy_stub
                0x0000000070005404                debug_indy_stub_0
                0x000000007000540c                debug_indy_stub_1
                0x0000000070005414                return_indy_read_buf_resourceID
                0x0000000070005420                debug_sp_related_11
                0x00000000700054e4                debug_sp_related_12
                0x0000000070005560                _is_normal_single_precision_float
                0x00000000700055a4                is_normal_single_precision_float
                0x00000000700055c8                set_normality_of_single_precision_floats
                0x0000000070005628                debug_indy_stub_2
                0x0000000070005630                write_char_to_pos_stderr
                0x00000000700056bc                __osRdbSend
                0x00000000700057cc                scroll_stderr_oneline
                0x000000007000585c                print_to_vidbuff1
                0x0000000070005984                set_ptr_video_buffers
                0x00000000700059a4                set_video_buffer_pointers
                0x00000000700059d0                write_stderr_to_buffer
 build/debug_stuff_split.o(.text)
 build/debug_getlastRA.o(.text)
 .text          0x0000000070005b10       0x50 build/debug_getlastRA.o
                0x0000000070005b10                return_last_RA_saved_to_stack
                0x0000000070005b18                .L70005B18
 build/ramrom.o(.text)
 .text          0x0000000070005b60      0x1d0 build/ramrom.o
                0x0000000070005b60                romCreateMesgQueue
                0x0000000070005b90                doRomCopy
                0x0000000070005bf0                romReceiveMesg
                0x0000000070005c1c                romCopy
                0x0000000070005c44                romCopyAligned
                0x0000000070005ca8                doRomWrite
                0x0000000070005d08                romWrite
 build/boss.o(.text)
 .text          0x0000000070005d30      0xcc0 build/boss.o
                0x0000000070005d30                init_mainthread_data
                0x0000000070005ff4                enable_show_mem_use_flag
                0x0000000070006004                mem_bars_flag_toggle
                0x000000007000601c                setup_gamevalues_and_launchmainloop
                0x0000000070006060                mainloop
                0x0000000070006930                run_title_stage
                0x0000000070006950                set_loaded_stage
                0x000000007000695c                get_stage_num
                0x0000000070006968                return_to_title_from_level_end
                0x00000000700069b4                get_debug_parse_flag
                0x00000000700069c0                something_with_boss_c_debug
 build/music.o(.text)
 .text          0x00000000700069f0     0x1130 build/music.o
                0x00000000700069f0                audio_related
                0x0000000070006a30                setupaudio
                0x0000000070006e7c                musicTrack1Play
                0x0000000070006fd0                musicTrack1Stop
                0x0000000070007030                musicTrack1Length
                0x000000007000703c                musicTrack1Vol
                0x00000000700070a0                musicTrack1Tempo
                0x00000000700070f8                music_related_1
                0x0000000070007168                music_related_3
                0x0000000070007204                musicTrack2Play
                0x0000000070007358                musicTrack2Stop
                0x00000000700073b8                musicTrack2Length
                0x00000000700073c4                musicTrack2Vol
                0x0000000070007428                musicTrack2Tempo
                0x0000000070007480                music_related_6
                0x00000000700074f0                music_related_8
                0x000000007000758c                music_related_3rd_block
                0x00000000700076e0                musicTrack3Stop
                0x0000000070007740                get_music3len
                0x000000007000774c                musicTrack3Vol
                0x00000000700077b0                music_related_10
                0x0000000070007808                music_related_11
                0x0000000070007878                music_related_13
                0x0000000070007914                music_related_15
 build/sfx.o(.text)
 .text          0x0000000070007b20     0x1860 build/sfx.o
                0x0000000070007b20                music_related_16
                0x0000000070007ddc                music_related_17
                0x0000000070007e80                music_related_18
                0x0000000070007fbc                .L70007FBC
                0x0000000070008388                .L70008388
                0x000000007000847c                .L7000847C
                0x00000000700084f0                .L700084F0
                0x00000000700085c8                .L700085C8
                0x00000000700088d4                .L700088D4
                0x0000000070008948                music_related_19
                0x00000000700089c4                music_related_20
                0x0000000070008a30                music_related_21
                0x0000000070008af0                music_related_22
                0x0000000070008b70                music_related_23
                0x0000000070008d04                music_related_24
                0x0000000070008dd8                music_related_25
                0x0000000070008df0                sfxGetArg0Unk3F
                0x0000000070008e08                play_sfx_a1
                0x0000000070009020                sfxSetArg0Unk3EPostEvent
                0x000000007000906c                music_related_29
                0x0000000070009124                music_related_30
                0x0000000070009144                music_related_32
                0x0000000070009164                music_related_34
                0x0000000070009184                music_related_36
                0x00000000700091c8                music_related_37
                0x00000000700091e8                music_related_38
                0x0000000070009238                music_related_39
                0x0000000070009264                music_related_41
                0x0000000070009284                music_related_42
 build/memp.o(.text)
 .text          0x0000000070009380      0x690 build/memp.o
                0x0000000070009380                something_with_memp_c_debug
                0x00000000700093ac                check_memflag_tokens
                0x0000000070009514                memp_related_0
                0x0000000070009720                allocate_bytes_in_bank
                0x0000000070009804                memp_related_1
                0x00000000700098f0                nulled_list_all8_mem_alloc_banks_sizes
                0x0000000070009910                memp_related_3
                0x0000000070009970                memp_related_4
                0x000000007000999c                reset_mem_bank_a0
                0x00000000700099c4                memp_related_6
 build/mema.o(.text)
 .text          0x0000000070009a10      0xa40 build/mema.o
                0x0000000070009a10                swap_entries
                0x0000000070009a34                merge_alloc_entries
                0x0000000070009a50                sort_merge_entries_in_alloc_table
                0x0000000070009b18                memp_related_7
                0x0000000070009b60                mem_related
                0x0000000070009c74                mem_related_model_room_buffers
                0x0000000070009d6c                something_with_mema_c_debug
                0x0000000070009d98                reset_memtable_base_allocation
                0x0000000070009e10                mem_related_calls_sort_merge_entries
                0x0000000070009e34                mem_related_something_find_first
                0x0000000070009fa8                mem_related_something_find_first_0
                0x000000007000a020                mem_related_model_room_buffers_0
                0x000000007000a040                mem_related_allocated_table_related
                0x000000007000a064                mem_related_something_first_related
                0x000000007000a100                generate_list_alloc_mem
                0x000000007000a29c                generate_lists_before_after_mem_merge
                0x000000007000a2f8                mem_related_something_first_related_0
                0x000000007000a370                mem_related_0
                0x000000007000a3dc                mem_related_1
 build/random.o(.text)
 .text          0x000000007000a450       0xa0 build/random.o
                0x000000007000a450                random_related
                0x000000007000a498                increment_random_num
                0x000000007000a4ac                lotsa_shifting_randomizer_related
 build/token.o(.text)
 .text          0x000000007000a4f0      0x280 build/token.o
                0x000000007000a4f0                check_string_something
                0x000000007000a58c                strtok
                0x000000007000a5c0                check_boot_switches
                0x000000007000a6a0                check_token
 build/stringhandler.o(.text)
 .text          0x000000007000a770      0x500 build/stringhandler.o
                0x000000007000a770                textpointer_load_parse_something
                0x000000007000a7a0                something_with_strings
                0x000000007000a7fc                string_load_parse_something
                0x000000007000a84c                something_with_strings_0
                0x000000007000a898                string_related
                0x000000007000a8f8                strtol_related
                0x000000007000a930                strtol_related_0
                0x000000007000a950                strtol_related_1
                0x000000007000a98c                strtol_related_2
                0x000000007000a9e0                strtol
 build/sprintf.o(.text)
 .text          0x000000007000ac70       0x80 build/sprintf.o
                0x000000007000ac70                proutSprintf
                0x000000007000ac94                sprintf
 build/pi.o(.text)
 .text          0x000000007000acf0       0x40 build/pi.o
                0x000000007000acf0                start_pi_manager
 build/vi.o(.text)
 .text          0x000000007000ad30       0x50 build/vi.o
                0x000000007000ad30                start_nulled_entry
                0x000000007000ad38                something_with_vi_c_debug
 build/debugmenu.o(.text)
 .text          0x000000007000ad80      0x7e0 build/debugmenu.o
                0x000000007000ad80                dummied_function
                0x000000007000ad90                dummied_function_0
                0x000000007000ada0                null_function
                0x000000007000ada8                null_init_main_0
                0x000000007000adb0                debug_text_related_2
                0x000000007000add0                display_text_to_coord
                0x000000007000aedc                debug_menu_text_related
                0x000000007000af00                debug_text_related_1
                0x000000007000af84                stubbed_function
                0x000000007000af98                something_debug_info_related
                0x000000007000b040                set_final_debug_text_positions
                0x000000007000b06c                set_debug_text_color
                0x000000007000b098                set_color_speedgraph
                0x000000007000b0c4                write_char_to_screen
                0x000000007000b1c0                debug_text_related_0
                0x000000007000b1e8                write_string_stdout
                0x000000007000b230                debug_text_related
                0x000000007000b27c                read_screen_display_block_and_write_chars
 build/joy.o(.text)
 .text          0x000000007000b560     0x1420 build/joy.o
                0x000000007000b560                something_with_joy_c_debug
                0x000000007000b6ac                test_controller_presence
                0x000000007000b728                osPfsChecker
                0x000000007000b734                controller_7000B734
                0x000000007000b810                controller_check_for_rumble_maybe
                0x000000007000b9f8                controller_finding_controller_maybe
                0x000000007000ba70                get_num_controllers_plugged_in
                0x000000007000ba7c                controller_rumble_related
                0x000000007000bba8                set_disable_all_rumble_and_something
                0x000000007000bbbc                set_ptr_tlb_ramrom_record
                0x000000007000bbc8                probably_ramrom_related
                0x000000007000bd0c                redirect_to_ramrom_replay_and_record_handlers_if_set
                0x000000007000bd88                controller_7000BD88
                0x000000007000c0ec                get_cur_controller_horz_stick_pos
                0x000000007000c174                controller_7000C174
                0x000000007000c1fc                get_cur_controller_vert_stick_pos
                0x000000007000c284                controller_7000C284
                0x000000007000c30c                get_controller_buttons_held
                0x000000007000c3ac                get_controller_buttons_pressed
                0x000000007000c430                controller_7000C430
                0x000000007000c470                controller_7000C470
                0x000000007000c4b4                get_controller_3dstick_L_R
                0x000000007000c528                get_controller_3dstick_U_D
                0x000000007000c59c                controller_7000C59C
                0x000000007000c60c                controller_7000C60C
                0x000000007000c67c                controller_7000C67C
                0x000000007000c6bc                controller_7000C6BC
                0x000000007000c6fc                save_7000C6FC
                0x000000007000c734                save_7000C734
                0x000000007000c778                save_7000C778
                0x000000007000c7bc                save_7000C7BC
                0x000000007000c808                save_7000C808
                0x000000007000c854                controller_7000C854
                0x000000007000c8dc                reset_cont_rumble_detect
                0x000000007000c930                controller_7000C930
                0x000000007000c954                controller_7000C954
 build/joy_rumble.o(.text)
 .text          0x000000007000c980      0x520 build/joy_rumble.o
                0x000000007000c980                send_rumble_off_to_PIF
                0x000000007000caac                controller_7000CAAC
                0x000000007000cbdc                controller_7000CBDC
                0x000000007000cd38                controller_7000CD38
 build/rmon.o(.text)
 .text          0x000000007000cea0       0xf0 build/rmon.o
                0x000000007000cea0                thread0_rmon
                0x000000007000cea8                rmon_debug_is_final_build
                0x000000007000ceb0                rmon_debug_returns_neg_1
                0x000000007000ceb8                rmon_debug_stub
                0x000000007000cec0                rmon_debug_stub_0
                0x000000007000cec8                rmon_debug_stub_1
                0x000000007000ced0                rmon_debug_stub_2
                0x000000007000ced8                rmon_debug_stub_3
                0x000000007000cee0                rmon_debug_stub_4
                0x000000007000cee8                proutSyncPrintf
                0x000000007000cf44                osSyncPrintf
 build/libultra/libultra.o(.text)
 .text          0x000000007000cf90    0x13e00 build/libultra/libultra.o
                0x000000007000cf90                osPiRawStartDma
                0x000000007000d070                osPiGetStatus
                0x000000007000d080                osInitialize
                0x000000007000d320                osWritebackDCacheAll
                0x000000007000d350                osInvalICache
                0x000000007000d3d0                osUnmapTLB
                0x000000007000d410                __osGetFpcCsr
                0x000000007000d420                __osSetFpcCsr
                0x000000007000d430                osCreateThread
                0x000000007000d580                osStartThread
                0x000000007000d6d0                osCreateMesgQueue
                0x000000007000d740                osStopThread
                0x000000007000d800                osSetThreadPri
                0x000000007000d8e0                osGetCount
                0x000000007000d8f0                osCreateViManager
                0x000000007000da78                viMgrMain
                0x000000007000dc50                osSetEventMesg
                0x000000007000dcc0                osViSetEvent
                0x000000007000dd30                osSetIntMask
                0x000000007000ddd0                osRecvMesg
                0x000000007000df10                osSendMesg
                0x000000007000e060                osViSetMode
                0x000000007000e0d0                osViSetXScale
                0x000000007000e200                osViSetYScale
                0x000000007000e260                osViRepeatLine
                0x000000007000e2d0                osViBlack
                0x000000007000e340                osSpTaskYielded
                0x000000007000e3c0                osDpGetCounters
                0x000000007000e410                osViGetCurrentFramebuffer
                0x000000007000e450                osViGetNextFramebuffer
                0x000000007000e490                osViSwapBuffer
                0x000000007000e4e0                osDpSetStatus
                0x000000007000e4f0                _VirtualToPhysicalTask
                0x000000007000e60c                osSpTaskLoad
                0x000000007000e76c                osSpTaskStartGo
                0x000000007000e7b0                osDpSetNextBuffer
                0x000000007000e860                osSpTaskYield
                0x000000007000e880                __osGetTLBHi
                0x000000007000e8b0                osVirtualToPhysical
                0x000000007000e930                osAiSetFrequency
                0x000000007000ea90                alUnlink
                0x000000007000eac0                alLink
                0x000000007000eae4                alClose
                0x000000007000eb1c                alInit
                0x000000007000eb50                alHeapDBAlloc
                0x000000007000ebb0                osGetTime
                0x000000007000ec40                __ull_rshift
                0x000000007000ec6c                __ull_rem
                0x000000007000eca8                ull_div
                0x000000007000ece4                __ll_lshift
                0x000000007000ed10                __ll_rem
                0x000000007000ed4c                __ll_div
                0x000000007000eda8                __ll_mul
                0x000000007000edd8                __ull_divremi
                0x000000007000ee38                __ll_mod
                0x000000007000eed4                __ll_rshift
                0x000000007000ef00                osAiSetNextBuffer
                0x000000007000efb0                osAiGetLength
                0x000000007000efc8                _timeToSamples
                0x000000007000f020                _freePVoice
                0x000000007000f058                _collectPVoices
                0x000000007000f0b8                __freeParam
                0x000000007000f0d0                __allocParam
                0x000000007000f108                alAudioFrame
                0x000000007000f3a0                alSynNew
                0x000000007000f6a0                osPiStartDma
                0x000000007000f7b0                osViSetSpecialFeatures
                0x000000007000f970                _bcopy
                0x000000007000fc80                guPerspectiveF
                0x000000007000feb0                guPerspective
                0x000000007000ff10                guMtxF2L
                0x0000000070010010                guMtxIdentF
                0x0000000070010098                guMtxIdent
                0x00000000700100c8                guMtxL2F
                0x0000000070010180                ultra_70010180
                0x0000000070010190                __osExceptionPreamble
                0x00000000700101a0                __osException
                0x0000000070010390                next_interrupt
                0x00000000700103c8                IP6_Hdlr
                0x00000000700103d4                IP7_Hdlr
                0x00000000700103e0                counter
                0x0000000070010400                cart
                0x0000000070010454                rcp
                0x0000000070010594                prenmi
                0x00000000700105f0                sw2
                0x0000000070010610                swl
                0x0000000070010648                redispatch
                0x000000007001067c                enqueueRunning
                0x00000000700106c4                send_mesg
                0x0000000070010778                handle_CpU
                0x00000000700107ac                __osEnqueueAndYield
                0x00000000700108ac                __osEnqueueThread
                0x00000000700108f4                __osPopThread
                0x0000000070010904                __osDispatchThread
                0x0000000070010924                __osDispatchThreadSave
                0x0000000070010a80                __osCleanupThread
                0x0000000070010a90                __osDequeueThread
                0x0000000070010ad0                osYieldThread
                0x0000000070010b20                osInvalDCache
                0x0000000070010bd0                osWritebackDCache
                0x0000000070010c50                osSetTimer
                0x0000000070010d30                alHeapInit
                0x0000000070010d80                ultra_70010D80
                0x0000000070010e74                alBnkfNew
                0x0000000070010f78                alSeqFileNew
                0x0000000070010fc0                __CSPPostNextSeqEvent
                0x0000000070011030                ultra_70011030
                0x000000007001106c                ultra_7001106C
                0x000000007001123c                __CSPHandleMIDIMsg
                0x0000000070011a6c                ultra_70011A6C
                0x0000000070012080                alCSPNew
                0x00000000700121f0                alSeqpSetBank
                0x0000000070012230                alCSPGetState
                0x0000000070012240                alCSeqGetLoc
                0x00000000700122e0                alCSeqSetLoc
                0x0000000070012380                ultra_70012380
                0x0000000070012444                ultra_70012444
                0x00000000700124a4                alCSeqNextEvent
                0x000000007001279c                alCSeqNew
                0x00000000700128b0                alCSeqNewMarker
                0x0000000070012a1c                alCSeqGetTicks
                0x0000000070012a24                alCSeqSecToTicks
                0x0000000070012b20                alCSeqTicksToSec
                0x0000000070012b8c                __alCSeqNextDelta
                0x0000000070012d00                alCSPSetSeq
                0x0000000070012d40                alCSPPlay
                0x0000000070012d70                alCSPStop
                0x0000000070012da0                alCSPSetVol
                0x0000000070012de0                alEvtqFlushType
                0x0000000070012e8c                alEvtqFlush
                0x0000000070012efc                alEvtqPostEvent
                0x0000000070013020                alEvtqNextEvent
                0x00000000700130ac                alEvtqNew
                0x0000000070013120                alSynAddPlayer
                0x0000000070013170                _allocatePVoice
                0x0000000070013258                alSynAllocVoice
                0x00000000700133a0                alSynSetVol
                0x0000000070013440                alSynStartVoice
                0x00000000700134d0                alSynSetPan
                0x0000000070013560                alSynSetPitch
                0x00000000700135f0                alSynSetFXMix
                0x0000000070013690                alSynStopVoice
                0x0000000070013710                alSynFreeVoice
                0x00000000700137c0                alCents2Ratio
                0x0000000070013810                osPiReadIo
                0x0000000070013850                memcpy
                0x000000007001387c                strlen
                0x00000000700138a4                strchr
                0x00000000700138f0                _Putfld
                0x0000000070013f60                _Printf
                0x00000000700145b0                osCreatePiManager
                0x0000000070014740                osPfsInit
                0x00000000700147f4                __osPfsGetStatus
                0x0000000070014900                osContInit
                0x0000000070014af8                __osContGetInitData
                0x0000000070014bc8                __osPackRequestData
                0x0000000070014cc0                osContStartQuery
                0x0000000070014d44                osContGetQuery
                0x0000000070014d70                osContStartReadData
                0x0000000070014e34                osContGetReadData
                0x0000000070014edc                osContReadData_sub
                0x0000000070014fd0                osEepromProbe
                0x0000000070015040                osEepromRead
                0x0000000070015230                osEepromRead_sub
                0x0000000070015340                osEepromWrite
                0x00000000700154f0                osEepromWrite_sub
                0x00000000700155fc                __osEepStatus
                0x0000000070015820                osEepromLongRead
                0x0000000070015960                osEepromLongWrite
                0x0000000070015aa0                osPfsIsPlug
                0x0000000070015c40                __osPfsRequestData
                0x0000000070015d3c                __osPfsGetInitData
                0x0000000070015e10                __osSiCreateAccessQueue
                0x0000000070015e60                __osSiGetAccess
                0x0000000070015ea4                __osSiRelAccess
                0x0000000070015ed0                __osSiRawStartDma
                0x0000000070015f80                __osContAddressCrc
                0x0000000070016030                __osContDataCrc
                0x0000000070016100                __osContRamWrite
                0x0000000070016330                __osContRamWrite_sub
                0x00000000700164b0                __osContRamRead
                0x00000000700166f4                __osContRamRead_sub
                0x0000000070016860                guAlignF
                0x0000000070016a20                guAlign
                0x0000000070016a70                guOrthoF
                0x0000000070016bc4                guOrtho
                0x0000000070016c30                coss
                0x0000000070016c60                sins
                0x0000000070016cd0                guTranslateF
                0x0000000070016d18                guTranslate
                0x0000000070016d70                _bcmp
                0x0000000070016e90                guScaleF
                0x0000000070016ee4                guScale
                0x0000000070016f30                guLookAtReflectF
                0x0000000070017370                guLookAtReflect
                0x00000000700173f0                guLookAtF
                0x00000000700176a8                guLookAt
                0x0000000070017720                guRotateF
                0x00000000700178b4                guRotate
                0x0000000070017910                __d_to_ll
                0x000000007001792c                __f_to_ll
                0x0000000070017948                __d_to_ull
                0x00000000700179e8                __f_to_ull
                0x0000000070017a84                __ll_to_d
                0x0000000070017a9c                __ll_to_f
                0x0000000070017ab4                __ull_to_d
                0x0000000070017ae8                __ull_to_f
                0x0000000070017b20                __osSetSR
                0x0000000070017b30                __osGetSR
                0x0000000070017b40                __osSiRawReadIo
                0x0000000070017b90                __osSiRawWriteIo
                0x0000000070017be0                osPiRawReadIo
                0x0000000070017c40                _blkclr
                0x0000000070017ce0                __osSetHWIntrRoutine
                0x0000000070017d30                __osLeoInterrupt
                0x0000000070018414                __osLeoInterrupt_sub1
                0x00000000700184fc                __osLeoInterrupt_sub2
                0x00000000700185f0                __osDisableInt
                0x0000000070018610                __osRestoreInt
                0x0000000070018630                __osTimerServicesInit
                0x00000000700186bc                __osTimerInterrupt
                0x0000000070018834                __osSetTimerIntr
                0x00000000700188a8                __osInsertTimer
                0x0000000070018a30                osGetThreadPri
                0x0000000070018a50                __osViInit
                0x0000000070018b60                __osViGetCurrentContext
                0x0000000070018b70                __osViSwapContext
                0x0000000070018ed0                __osSpGetStatus
                0x0000000070018ee0                __osSpSetStatus
                0x0000000070018ef0                __osSpSetPc
                0x0000000070018f30                __osSpRawStartDma
                0x0000000070018fc0                __osSpDeviceBusy
                0x0000000070018ff0                __osDpDeviceBusy
                0x0000000070019020                __osProbeTLB
                0x00000000700190e0                alSynDelete
                0x00000000700190f0                __osAiDeviceBusy
                0x0000000070019120                alSaveNew
                0x0000000070019164                alMainBusNew
                0x00000000700191b8                alAuxBusNew
                0x000000007001920c                alResampleNew
                0x0000000070019294                alLoadNew
                0x000000007001933c                alEnvmixerNew
                0x00000000700193e0                init_lpfilter
                0x0000000070019480                alFxNew
                0x00000000700198c0                alSynAllocFX
                0x0000000070019960                alMainBusParam
                0x0000000070019990                alMainBusPull
                0x0000000070019ab0                alLoadParam
                0x0000000070019c84                alRaw16Pull
                0x000000007001a030                ultra_7001A030
                0x000000007001a15c                alAdpcmPull
                0x000000007001a600                alResampleParam
                0x000000007001a6ec                alResamplePull
                0x000000007001a900                _ldexpf
                0x000000007001a928                _frexpf
                0x000000007001aa14                alEnvmixerParam
                0x000000007001aaf4                ultra_7001AAF4
                0x000000007001abb4                ultra_7001ABB4
                0x000000007001ae5c                alEnvmixerPull
                0x000000007001b4e0                ultra_7001B4E0
                0x000000007001b510                ultra_7001B510
                0x000000007001b5f0                alSaveParam
                0x000000007001b624                alSavePull
                0x000000007001b6b0                osJamMesg
                0x000000007001b800                osPiGetCmdQueue
                0x000000007001b830                ultra_7001B830
                0x000000007001b9a0                ultra_7001B9A0
                0x000000007001bb60                osDestroyThread
                0x000000007001bc60                __setInstChanState
                0x000000007001bcb4                __resetPerfChanState
                0x000000007001bd34                __initFromBank
                0x000000007001bdf0                __vsDelta
                0x000000007001be14                __vsVol
                0x000000007001be9c                __seqpReleaseVoice
                0x000000007001bfc8                __voiceNeedsNoteKill
                0x000000007001c070                __unmapVoice
                0x000000007001c0e0                __postNextSeqEvent
                0x000000007001c1bc                __handleMetaMsg
                0x000000007001c234                __vsPan
                0x000000007001c27c                __lookupVoice
                0x000000007001c2f0                __mapVoice
                0x000000007001c360                __lookupSoundQuick
                0x000000007001c45c                __handleMIDIMsg
                0x000000007001cc7c                __seqpVoiceHandler
                0x000000007001d2a0                __seqpStopOsc
                0x000000007001d300                unknown_libname_37
                0x000000007001d32c                unknown_libname_38
                0x000000007001d338                unknown_libname_39
                0x000000007001d35c                unknown_libname_40
                0x000000007001d38c                unknown_libname_41
                0x000000007001d3a0                unknown_libname_42
                0x000000007001d3a4                __initChanState
                0x000000007001d414                alSeqpNew
                0x000000007001d5a0                alSynStartVoiceParams
                0x000000007001d690                alCopy
                0x000000007001d710                __osPiCreateAccessQueue
                0x000000007001d760                __osPiGetAccess
                0x000000007001d7a4                __osPiRelAccess
                0x000000007001d7d0                _Litob
                0x000000007001da70                xldtob_sub0
                0x000000007001dfe0                _Ldtob
                0x000000007001e530                osEPiRawStartDma
                0x000000007001e610                __osDevMgrMain
                0x000000007001e9c0                __osSumcalc
                0x000000007001ea1c                __osIdCheckSum
                0x000000007001ea84                __osRepairPackId
                0x000000007001ee9c                __osCheckPackId
                0x000000007001f034                __osGetId
                0x000000007001f290                __osCheckId
                0x000000007001f38c                __osPfsRWInode
                0x000000007001f6ac                __osPfsSelectBank
                0x000000007001f720                __osSiDeviceBusy
                0x000000007001f750                guNormalize
                0x000000007001f7e0                sqrtf
                0x000000007001f7f0                osLeoDiskInit
                0x000000007001f8e0                __osSetCompare
                0x000000007001f8f0                alFilterNew
                0x000000007001f910                _doModFunc
                0x000000007001f9b8                _filterBuffer
                0x000000007001fa70                _saveBuffer
                0x000000007001fbf8                _loadBuffer
                0x000000007001fd84                _loadOutputBuffer
                0x000000007001ffa8                alFxParamHdl
                0x00000000700201c0                alFxParam
                0x00000000700201d8                alFxPull
                0x0000000070020520                alSeqGetLoc
                0x000000007002053c                alSeqSetLoc
                0x0000000070020558                alSeqGetTicks
                0x0000000070020568                readVarLen
                0x00000000700205b4                alSeqNextEvent
                0x0000000070020738                alSeqNewMarker
                0x0000000070020858                alSeqSecToTicks
                0x000000007002093c                alSeqTicksToSec
                0x0000000070020990                __alSeqNextDelta
                0x00000000700209e8                read32
                0x0000000070020a38                read16
                0x0000000070020a68                alSeqNew
                0x0000000070020b40                alSynSetPriority
                0x0000000070020b50                lldiv
                0x0000000070020c50                ldiv
                0x0000000070020ce0                __osResetGlobalIntMask
                0x0000000070020d40                osEPiRawWriteIo
                [0x0000000000be648a]                __romPos = (__romPos + SIZEOF (.text_code))
                [0x000000008008e360]                __ramPos = (__ramPos + SIZEOF (.text_code))

.c_data
 *(.c_data)
                [0x0000000000be648a]                __romPos = (__romPos + 0x11c00)

.text_rarezip   0x0000000070200000     0x15a0 load address 0x0000000000033590
 build/rarezip/rarezip.o(.text)
 .text          0x0000000070200000     0x1480 build/rarezip/rarezip.o
                0x0000000070200000                decompress_buildtable
                0x0000000070200654                decompress_inflate
                0x0000000070200a48                decompress_type0
                0x0000000070200b9c                decompress_type1
                0x0000000070200d04                decompress_type2
                0x0000000070201228                decompress_table
                0x0000000070201348                decompress_start
                0x000000007020141c                decompress_entry
 build/rarezip/rarezip.o(.data)
 .data          0x0000000070201480      0x120 build/rarezip/rarezip.o
                0x0000000070201480                rz_ptr_source
                0x0000000070201484                rz_ptr_target
                0x0000000070201488                rz_curoffset
                0x000000007020148c                rz_decompressed_count
                0x0000000070201490                rz_ptrbuffer
                0x0000000070201494                rz_order
                0x00000000702014a8                rz_lbase
                0x00000000702014e8                rz_lextra
                0x0000000070201508                rz_dbase
                0x0000000070201544                rz_dextra
                0x0000000070201564                rz_sample
                0x0000000070201568                rz_bitsinsample
                0x000000007020156c                rz_masks
                0x0000000070201590                rz_data1
                0x0000000070201594                rz_data2
                0x0000000070201598                rz_data3
                [0x0000000000be648a]                __romPos = (__romPos + SIZEOF (.text_rarezip))

.text_tlbcode   0x000000007f000000    0xe2d50 load address 0x0000000000034b30
 build/game/initgamedata.o(.text)
 .text          0x000000007f000000       0xe0 build/game/initgamedata.o
                0x000000007f000000                initGameData
 build/game/initweaponanigroups.o(.text)
 .text          0x000000007f0000e0       0x30 build/game/initweaponanigroups.o
                0x000000007f0000e0                init_weapon_animation_groups_maybe
 build/game/initactorpropstuff.o(.text)
 .text          0x000000007f000110      0x8c0 build/game/initactorpropstuff.o
                0x000000007f000110                reset_counter_rand_body_head
                0x000000007f0001f0                sub_GAME_7F0001F0
                0x000000007f000290                sub_GAME_7F000290
                0x000000007f00032c                sub_GAME_7F00032C
                0x000000007f00046c                sub_GAME_7F00046C
                0x000000007f0004d0                sub_GAME_7F0004D0
                0x000000007f000518                somethingwith_weapon_animation_groups
                0x000000007f000980                sub_GAME_7F000980
                0x000000007f0009a0                sub_GAME_7F0009A0
 build/game/initnull_0009D0.o(.text)
 .text          0x000000007f0009d0       0x10 build/game/initnull_0009D0.o
                0x000000007f0009d0                null_init_main_3
 build/game/initunk_0009E0.o(.text)
 .text          0x000000007f0009e0       0x20 build/game/initunk_0009E0.o
                0x000000007f0009e0                sub_GAME_7F0009E0
 build/game/initanitable.o(.text)
 .text          0x000000007f000a00      0x160 build/game/initanitable.o
                0x000000007f000a00                expand_ani_table_entries
                0x000000007f000aac                alloc_load_expand_ani_table
 build/game/initunk_000B60.o(.text)
 .text          0x000000007f000b60       0x20 build/game/initunk_000B60.o
                0x000000007f000b60                sub_GAME_7F000B60
 build/game/setguscale.o(.text)
 .text          0x000000007f000b80       0x40 build/game/setguscale.o
                0x000000007f000b80                set_gu_scale
 build/game/initnull_000BC0.o(.text)
 .text          0x000000007f000bc0       0x10 build/game/initnull_000BC0.o
                0x000000007f000bc0                null_init_main_2
 build/game/initimages.o(.text)
 .text          0x000000007f000bd0       0xa0 build/game/initimages.o
                0x000000007f000bd0                image_entries_load
 build/game/initintromatrices.o(.text)
 .text          0x000000007f000c70       0xb0 build/game/initintromatrices.o
                0x000000007f000c70                alloc_intro_matrices
 build/game/initmenus.o(.text)
 .text          0x000000007f000d20      0x120 build/game/initmenus.o
                0x000000007f000d20                init_menus_or_reset
 build/game/initguards.o(.text)
 .text          0x000000007f000e40      0x1e0 build/game/initguards.o
                0x000000007f000e40                init_guards
                0x000000007f000eb8                alloc_init_GUARDdata_entries
                0x000000007f000f50                set_new_rand_head_bodies
 build/game/deb_loadallmodels.o(.text)
 .text          0x000000007f001020      0x490 build/game/deb_loadallmodels.o
                0x000000007f001020                init_obj_register_difficulty_vals
                0x000000007f00105c                alloc_false_GUARDdata_to_exec_global_action
                0x000000007f001258                debug_object_load_all_models
                0x000000007f00140c                debug_weapon_load_table
 build/game/initobjects.o(.text)
 .text          0x000000007f0014b0      0x6a0 build/game/initobjects.o
                0x000000007f0014b0                init_sound_effects_registers
                0x000000007f0014e0                init_load_objpos_table
                0x000000007f0015d0                alloc_lookup_buffers
                0x000000007f001750                reinit_between_menus
                0x000000007f001910                sub_GAME_7F001910
                0x000000007f001928                sub_GAME_7F001928
                0x000000007f001940                sub_GAME_7F001940
                0x000000007f001958                write_monitor_ani_control_blocks
                0x000000007f001b08                initialize_80071E00_to_80071E78
 build/game/prop.o(.text)
 .text          0x000000007f001b50     0x3370 build/game/prop.o
                0x000000007f001b50                load_proptype
                0x000000007f001bd4                sub_GAME_7F001BD4
                0x000000007f001d9c                prepare_load_objects
                0x000000007f002738                expand_08_obj_set_guard_MP_weapons
                0x000000007f0029a8                MP_weapon_expansion_routine
                0x000000007f002a1c                jmp_prepare_load_objects
                0x000000007f002a3c                sub_GAME_7F002A3C
                0x000000007f002c58                expand_type_0D_object_autoturret
                0x000000007f002e1c                jmp_prepare_load_objects_0
                0x000000007f002e3c                sub_GAME_7F002E3C
                0x000000007f0030d0                sub_GAME_7F0030D0
                0x000000007f00324c                sub_GAME_7F00324C
                0x000000007f003480                sub_GAME_7F003480
                0x000000007f003bf0                stage_loading_setup_objparse_cleanupafter
 build/game/objective.o(.text)
 .text          0x000000007f004ec0      0x180 build/game/objective.o
                0x000000007f004ec0                something_with_stage_objectives
                0x000000007f004f88                set_parent_cur_tag_entry
                0x000000007f004fa0                setup_briefing_text_entry_parent
                0x000000007f004fb8                add_ptr_to_objective
                0x000000007f004ff4                set_parent_cur_obj_enter_room
                0x000000007f00500c                set_parent_cur_obj_deposited_in_room
                0x000000007f005024                set_parent_cur_obj_photograph
 build/game/ejectedcartridges.o(.text)
 .text          0x000000007f005040       0x90 build/game/ejectedcartridges.o
                0x000000007f005040                something_with_ejected_cartridges
 build/game/initBondDATA.o(.text)
 .text          0x000000007f0050d0      0x380 build/game/initBondDATA.o
                0x000000007f0050d0                init_player_BONDdata_stats
 build/game/initunk_005450.o(.text)
 .text          0x000000007f005450       0xd0 build/game/initunk_005450.o
                0x000000007f005450                sub_GAME_7F005450
 build/game/initunk_005520.o(.text)
 .text          0x000000007f005520      0x1f0 build/game/initunk_005520.o
                0x000000007f005520                zero_contents_of_80036070_74
                0x000000007f005534                set_contents_of_80036078
                0x000000007f005540                sub_GAME_7F005540
                0x000000007f005624                sub_GAME_7F005624
 build/game/initcameraandthrown.o(.text)
 .text          0x000000007f005710      0xae0 build/game/initcameraandthrown.o
                0x000000007f005710                set_weapon_model_generated_thrown_object
                0x000000007f0057c4                load_camera_intro_type_values
 build/game/inititemslots.o(.text)
 .text          0x000000007f0061f0       0xd0 build/game/inititemslots.o
                0x000000007f0061f0                sub_GAME_7F0061F0
                0x000000007f00625c                alloc_additional_item_slots
 build/game/initBondDATAdefaults.o(.text)
 .text          0x000000007f0062c0      0x500 build/game/initBondDATAdefaults.o
                0x000000007f0062c0                sub_GAME_7F0062C0
                0x000000007f00638c                sets_a_bunch_of_BONDdata_values_to_default
 build/game/initpathtablesomething.o(.text)
 .text          0x000000007f0067c0       0xd0 build/game/initpathtablesomething.o
                0x000000007f0067c0                init_pathtable_something
 build/game/initpathtablelinks.o(.text)
 .text          0x000000007f006890      0x500 build/game/initpathtablelinks.o
                0x000000007f006890                init_path_table_links
 build/game/initexplosioncasing.o(.text)
 .text          0x000000007f006d90      0x3f0 build/game/initexplosioncasing.o
                0x000000007f006d90                alloc_explosion_smoke_casing_scorch_impact_buffers
 build/game/initunk_007180.o(.text)
 .text          0x000000007f007180      0x110 build/game/initunk_007180.o
                0x000000007f007180                sub_GAME_7F007180
 build/game/initunk_007290.o(.text)
 .text          0x000000007f007290       0x20 build/game/initunk_007290.o
                0x000000007f007290                sub_GAME_7F007290
 build/game/initunk_0072B0.o(.text)
 .text          0x000000007f0072b0       0x70 build/game/initunk_0072B0.o
                0x000000007f0072b0                sub_GAME_7F0072B0
                0x000000007f0072f8                disable_onscreen_cheat_text
 build/game/initmttex.o(.text)
 .text          0x000000007f007320       0x90 build/game/initmttex.o
                0x000000007f007320                set_mt_tex_alloc
 build/game/initunk_0073B0.o(.text)
 .text          0x000000007f0073b0       0xb0 build/game/initunk_0073B0.o
                0x000000007f0073b0                cleanupGuardData
 build/game/initunk_007460.o(.text)
 .text          0x000000007f007460       0x70 build/game/initunk_007460.o
                0x000000007f007460                cleanupObjectSounds
 build/game/cleanup_alarms.o(.text)
 .text          0x000000007f0074d0       0x30 build/game/cleanup_alarms.o
                0x000000007f0074d0                cleanupAlarms
 build/game/cleanup_objects.o(.text)
 .text          0x000000007f007500       0x90 build/game/cleanup_objects.o
                0x000000007f007500                cleanupObjects
 build/game/cleanup_objectives.o(.text)
 .text          0x000000007f007590      0x170 build/game/cleanup_objectives.o
                0x000000007f007590                cleanupObjectives
 build/game/cleanupSFXRelated.o(.text)
 .text          0x000000007f007700       0x70 build/game/cleanupSFXRelated.o
                0x000000007f007700                cleanupSFXRelated
 build/game/playerstats_007770.o(.text)
 .text          0x000000007f007770       0x90 build/game/playerstats_007770.o
                0x000000007f007770                sub_GAME_7F007770
 build/game/unk_007800.o(.text)
 .text          0x000000007f007800      0x120 build/game/unk_007800.o
                0x000000007f007800                cleanupExplosions
 build/game/unk_007920.o(.text)
 .text          0x000000007f007920       0x50 build/game/unk_007920.o
                0x000000007f007920                sub_GAME_7F007920
 build/game/null_007970.o(.text)
 .text          0x000000007f007970       0x10 build/game/null_007970.o
                0x000000007f007970                cleanup_REMOVED_
 build/game/unk_007980.o(.text)
 .text          0x000000007f007980       0xc0 build/game/unk_007980.o
                0x000000007f007980                cleanupplayersoundrelated
 build/game/intro_logos.o(.text)
 .text          0x000000007f007a40     0x1d20 build/game/intro_logos.o
                0x000000007f007a40                something_with_gunbarrel_and_rareware_logo_matrix_manip
                0x000000007f007b94                insert_sight_backdrop_eye_intro
                0x000000007f007cc8                sub_GAME_7F007CC8
                0x000000007f007d8c                insert_sniper_sight_eye_intro
                0x000000007f007e70                sub_GAME_7F007E70
                0x000000007f007f30                sub_GAME_7F007F30
                0x000000007f0082c8                insert_bond_eye_intro
                0x000000007f0084c0                load_display_rare_logo
                0x000000007f008b58                sub_GAME_7F008B58
                0x000000007f008bdc                retrieve_display_rareware_logo
                0x000000007f008dd0                sub_GAME_7F008DD0
                0x000000007f008de4                sub_GAME_7F008DE4
                0x000000007f008e80                sub_GAME_7F008E80
                0x000000007f00920c                sub_GAME_7F00920C
                0x000000007f009254                sub_GAME_7F009254
                0x000000007f009744                sub_GAME_7F009744
 build/game/mainmenu.o(.text)
 .text          0x000000007f009760    0x11980 build/game/mainmenu.o
                0x000000007f009760                write_text_at_abs_coord
                0x000000007f009848                check_if_cheat_available
                0x000000007f009b50                getplayerfavoredweapon
                0x000000007f009b84                menu_control_stick_tracking
                0x000000007f009f08                load_draw_selected_icon_folder_select
                0x000000007f00a080                add_tab1_start
                0x000000007f00a1e4                isontab1
                0x000000007f00a238                add_tab3_previous
                0x000000007f00a39c                isontab3
                0x000000007f00a3f0                set_cursor_pos_tab2
                0x000000007f00a414                add_tab2_next
                0x000000007f00a578                isontab2
                0x000000007f00a5e8                init_menu00_legalscreen
                0x000000007f00a6b0                update_menu00_legalscreen
                0x000000007f00a6dc                interface_menu00_legalscreen
                0x000000007f00a7e4                display_aligned_white_text_to_screen
                0x000000007f00a8e0                constructor_menu00_legalscreen
                0x000000007f00aaec                reset_menutimer
                0x000000007f00aaf8                dummy7F00AAF8
                0x000000007f00ab00                interface_menu17_switchscreens
                0x000000007f00aba8                constructor_menu17_switchscreens
                0x000000007f00abc8                init_menu01_nintendo
                0x000000007f00aca4                update_menu01_nintendo
                0x000000007f00acc8                interface_menu01_nintendo
                0x000000007f00ad98                constructor_menu01_nintendo
                0x000000007f00b064                init_menu02_rarelogo
                0x000000007f00b0a4                update_menu02_rareware
                0x000000007f00b0ac                interface_menu02_rareware
                0x000000007f00b134                constructor_menu02_rareware
                0x000000007f00b154                init_menu03_eyeintro
                0x000000007f00b190                update_menu_03_eye
                0x000000007f00b1b0                interface_menu03_eye
                0x000000007f00b238                constructor_menu03_eye
                0x000000007f00b258                init_menu04_goldeneyelogo
                0x000000007f00b304                update_menu04_goldeneye
                0x000000007f00b330                interface_menu04_goldeneyelogo
                0x000000007f00b47c                constructor_menu04_goldeneyelogo
                0x000000007f00b724                disable_all_switches
                0x000000007f00b7c0                set_item_visibility_in_objinstance
                0x000000007f00b808                select_load_bond_picture
                0x000000007f00b8ac                load_walletbond
                0x000000007f00b990                sub_GAME_7F00B990
                0x000000007f00b9e8                init_menu05_fileselect
                0x000000007f00bae0                update_menu05_filesel
                0x000000007f00bb1c                get_chapter_briefing_entry
                0x000000007f00bb68                toggle_deletion_menu_for_folder
                0x000000007f00bbcc                interface_menu05_fileselect
                0x000000007f00c384                get_ptr_difficulty_name
                0x000000007f00c408                constructor_menu05_fileselect
                0x000000007f00d250                init_menu06_modeselect
                0x000000007f00d290                update_menu06_modesel
                0x000000007f00d298                interface_menu06_modesel
                0x000000007f00d5e8                sub_GAME_7F00D5E8
                0x000000007f00d7fc                set_menu_cursor_pos_to_setting
                0x000000007f00d828                constructor_menu06_modesel
                0x000000007f00dcc0                pull_and_display_text_for_folder_a0
                0x000000007f00dd0c                check_if_stage_completed_on_difficulty
                0x000000007f00dd60                get_highest_unlocked_difficulty_for_level
                0x000000007f00de50                init_menu07_missionselect
                0x000000007f00deb0                update_menu07_missionsel
                0x000000007f00deb8                interface_menu07_missionsel
                0x000000007f00e3e0                set_cursor_to_stage_solo
                0x000000007f00e458                constructor_menu07_missionsel
                0x000000007f00e780                init_menu08_difficultyselect
                0x000000007f00e7b8                update_menu08_difficulty
                0x000000007f00e7c0                interface_menu08_difficulty
                0x000000007f00eabc                print_current_solo_briefing_stage_name
                0x000000007f00ed64                set_cursor_pos_difficulty
                0x000000007f00ed98                constructor_menu08_difficulty
                0x000000007f00f300                init_menu09_007difficultyselect
                0x000000007f00f36c                update_menu09_007options
                0x000000007f00f374                interface_menu09_007options
                0x000000007f00f798                constructor_menu09_007options
                0x000000007f0100bc                get_player_control_style
                0x000000007f0100d0                check_if_mp_stage_unlocked
                0x000000007f010170                select_game_length
                0x000000007f0101d8                copy_aim_settings_to_playerdata
                0x000000007f01023c                advance_aim_settings_selection
                0x000000007f010280                unlock_all_mp_chars
                0x000000007f010290                get_selected_num_players
                0x000000007f0102bc                get_player_mp_char_head
                0x000000007f01030c                get_player_mp_char_gender
                0x000000007f01035c                get_player_mp_char_body
                0x000000007f0103ac                get_player_mp_handicap
                0x000000007f0103d0                get_player_mp_char_height
                0x000000007f010420                get_mp_timelimit
                0x000000007f010444                get_mp_pointlimit
                0x000000007f010468                reset_mp_options_for_scenario
                0x000000007f010608                init_mp_options_for_scenario
                0x000000007f01073c                init_menu0E_mpoptions
                0x000000007f010840                update_menu0E_mpoptions
                0x000000007f010848                interface_menu0E_mpoptions
                0x000000007f010f10                constructor_menu0E_mpoptions
                0x000000007f011bd8                get_players_who_have_selected_mp_char
                0x000000007f011c3c                init_menu0f_mpcharsel
                0x000000007f011ecc                update_menu0F_mpcharsel
                0x000000007f011ed4                interface_menu0F_mpcharsel
                0x000000007f0122a8                sub_GAME_7F0122A8
                0x000000007f01231c                sub_GAME_7F01231C
                0x000000007f012794                constructor_menu0F_mpcharsel
                0x000000007f012e30                init_menu10_mphandicap
                0x000000007f012ebc                update_menu10_mphandicap
                0x000000007f012ec4                interface_menu10_mphandicap
                0x000000007f01317c                constructor_menu10_mphandicap
                0x000000007f013574                init_menu11_mpcontrol
                0x000000007f013600                update_menu11_mpcontrols
                0x000000007f013608                interface_menu11_mpcontrols
                0x000000007f013980                constructor_menu11_mpcontrol
                0x000000007f013d78                init_menu12_mpstage
                0x000000007f013dcc                update_menu12_mpstage
                0x000000007f013dd4                interface_menu12_mpstage
                0x000000007f014050                constructor_menu12_mpstage
                0x000000007f014758                get_scenario
                0x000000007f014764                init_menu13_mpscenariosel
                0x000000007f0147b0                update_menu13_mpscenario
                0x000000007f0147b8                interface_menu13_mpscenario
                0x000000007f014a48                constructor_menu13_mpscenario
                0x000000007f014c88                get_players_team_or_scenario_item_flag
                0x000000007f014ca4                set_players_team_or_scenario_item_flag
                0x000000007f014cc0                init_menu14_mpteamsel
                0x000000007f014d40                update_menu14_mpteams
                0x000000007f014d48                interface_menu14_mpteams
                0x000000007f015138                constructor_menu14_mpteams
                0x000000007f015510                set_briefing_page
                0x000000007f015520                load_briefing_text_for_stage
                0x000000007f0155f4                init_menu0A_briefing
                0x000000007f015640                update_menu0A_briefing
                0x000000007f01569c                interface_menu0A_briefing
                0x000000007f015a08                print_objectives_and_status_to_menu
                0x000000007f015d74                constructor_menu0A_briefing
                0x000000007f016064                init_menu0B_runstage
                0x000000007f016094                init_menu0C_missionfailed
                0x000000007f016108                update_menu0C_missionfailed
                0x000000007f016110                interface_menu0C_missionfailed
                0x000000007f01631c                sub_GAME_7F01631C
                0x000000007f0163ec                constructor_menu0C_missionfailed
                0x000000007f01667c                init_menu0D_missioncomplete
                0x000000007f0166d0                update_menu0D_missioncomplete
                0x000000007f0166d8                interface_menu0D_missioncomplete
                0x000000007f016a08                constructor_menu0D_missioncomplete
                0x000000007f017b50                init_menu15_cheat
                0x000000007f017bf4                update_menu15_cheat
                0x000000007f017c88                interface_menu15_cheat
                0x000000007f017f5c                constructor_menu15_cheat
                0x000000007f018438                init_menu16_nocontroller
                0x000000007f018440                update_menu16_nocontrollers
                0x000000007f018448                interface_menu16_nocontrollers
                0x000000007f018450                constructor_menu16_nocontrollers
                0x000000007f018670                do_extended_cast_display
                0x000000007f01869c                init_menu18_displaycast
                0x000000007f018f18                update_menu18_displaycast
                0x000000007f018f60                interface_menu18_displaycast
                0x000000007f019328                constructor_menu18_displaycast
                0x000000007f01a39c                init_menu19_spectrum
                0x000000007f01a480                update_menu19_spectrum
                0x000000007f01a488                interface_menu19_spectrum
                0x000000007f01a4e0                constructor_menu19_spectrum
                0x000000007f01a5d4                set_menu_to_mode
                0x000000007f01a610                get_currentmenu
                0x000000007f01a61c                menu_init
                0x000000007f01aefc                menu_jump_constructor_handler
                0x000000007f01af34                menu00_legal_constructor
                0x000000007f01af44                menu17_switchscreens_constructor
                0x000000007f01af54                menu01_nintendo_constructor
                0x000000007f01af64                menu02_rareware_constructor
                0x000000007f01af74                menu03_eyeintro_constructor
                0x000000007f01af84                menu04_goldeneye_constructor
                0x000000007f01af94                menu05_fileselect_constructor
                0x000000007f01afa4                menu06_modesel_constructor
                0x000000007f01afb4                menu07_missionsel_constructor
                0x000000007f01afc4                menu08_difficulty_constructor
                0x000000007f01afd4                menu09_007options_constructor
                0x000000007f01afe4                menu0A_briefing_constructor
                0x000000007f01aff4                menu0C_missionfailed_constructor
                0x000000007f01b004                menu0D_missioncomplete_constructor
                0x000000007f01b014                menu0E_mpoptions_constructor
                0x000000007f01b024                menu13_mpscenario_constructor
                0x000000007f01b034                menu0F_mpcharsel_constructor
                0x000000007f01b044                menu14_mpteams_constructor
                0x000000007f01b054                menu10_mphandicap_constructor
                0x000000007f01b064                menu11_mpcontrol_constructor
                0x000000007f01b074                menu12_mpstage_constructor
                0x000000007f01b084                menu15_cheat_constructor
                0x000000007f01b094                menu16_nocontrollers_constructor
                0x000000007f01b0a4                menu18_displaycast_constructor
                0x000000007f01b0b4                menu19_spectrum_constructor
                0x000000007f01b0c0                menu0B_runstage_constructor
 build/game/unk_01B0E0.o(.text)
 .text          0x000000007f01b0e0      0x160 build/game/unk_01B0E0.o
                0x000000007f01b0e0                sub_GAME_7F01B0E0
                0x000000007f01b134                sub_GAME_7F01B134
                0x000000007f01b1c8                sub_GAME_7F01B1C8
 build/game/unk_01B240.o(.text)
 .text          0x000000007f01b240      0x8a0 build/game/unk_01B240.o
                0x000000007f01b240                sub_GAME_7F01B240
                0x000000007f01b6e0                sub_GAME_7F01B6E0
 build/game/unk_01BAE0.o(.text)
 .text          0x000000007f01bae0      0x5f0 build/game/unk_01BAE0.o
                0x000000007f01bae0                sub_GAME_7F01BAE0
                0x000000007f01bff8                sub_GAME_7F01BFF8
 build/game/blood_animation.o(.text)
 .text          0x000000007f01c0d0      0xa10 build/game/blood_animation.o
                0x000000007f01c0d0                insert_imageDL
                0x000000007f01c1a4                sub_GAME_7F01C1A4
                0x000000007f01c284                die_blood_image_routine
                0x000000007f01c400                sub_GAME_7F01C400
                0x000000007f01c670                sub_GAME_7F01C670
                0x000000007f01ca18                sub_GAME_7F01CA18
 build/game/blood_decrypt.o(.text)
 .text          0x000000007f01cae0      0x7d0 build/game/blood_decrypt.o
                0x000000007f01cae0                decrypt_bleeding_animation_data
                0x000000007f01cc94                sub_GAME_7F01CC94
                0x000000007f01ccec                sub_GAME_7F01CCEC
                0x000000007f01ceec                sub_GAME_7F01CEEC
                0x000000007f01d02c                sub_GAME_7F01D02C
                0x000000007f01d16c                sub_GAME_7F01D16C
                0x000000007f01d1c0                sub_GAME_7F01D1C0
                0x000000007f01d29c                func_7F01D29C
 build/game/eeprom.o(.text)
 .text          0x000000007f01d2b0     0x2280 build/game/eeprom.o
                0x000000007f01d2b0                get_007_reaction_speed
                0x000000007f01d2e8                get_007_health_mod
                0x000000007f01d324                get_007_damage_mod
                0x000000007f01d360                get_007_accuracy_mod
                0x000000007f01d39c                end_of_mission_briefing
                0x000000007f01d500                sub_GAME_7F01D500
                0x000000007f01d524                deleteCurrentSelectedFolder
                0x000000007f01d548                copyCurrentEEPROMtoStack
                0x000000007f01d56c                getSelectedFolderBond
                0x000000007f01d590                set_selected_folder_num
                0x000000007f01d59c                set_selected_difficulty
                0x000000007f01d5ec                set_solo_and_ptr_briefing
                0x000000007f01d61c                sub_GAME_7F01D61C
                0x000000007f01d644                sub_GAME_7F01D644
                0x000000007f01d680                store_favorite_weapon_current_player
                0x000000007f01d6c0                sub_GAME_7F01D6C0
                0x000000007f01d6e0                sub_GAME_7F01D6E0
                0x000000007f01d758                sub_GAME_7F01D758
                0x000000007f01d7a0                sub_GAME_7F01D7A0
                0x000000007f01d840                sub_GAME_7F01D840
                0x000000007f01d8c8                get_foldernum_of_eeprom
                0x000000007f01d8d8                set_eeprom_to_folder_num
                0x000000007f01d8f4                set_eeprom_flag_0x18
                0x000000007f01d904                reset_eeprom_flag_0x18
                0x000000007f01d924                get_selected_bond
                0x000000007f01d934                set_selected_bond
                0x000000007f01d954                check_if_eeprom_flag_set_0x80
                0x000000007f01d964                toggle_eeprom_flag_set_0x80
                0x000000007f01d990                get_eeprom_stage_complete_time_for_difficulty
                0x000000007f01dae4                sub_GAME_7F01DAE4
                0x000000007f01dc60                get_eeprom_stage_completed_for_difficulty
                0x000000007f01dcb0                sub_GAME_7F01DCB0
                0x000000007f01dd20                check_if_cheat_unlocked
                0x000000007f01dd74                sub_GAME_7F01DD74
                0x000000007f01ddc4                get_save_folder_ptr
                0x000000007f01de50                sub_GAME_7F01DE50
                0x000000007f01deb4                sub_GAME_7F01DEB4
                0x000000007f01df90                sub_GAME_7F01DF90
                0x000000007f01e28c                check_if_valid_folder_num
                0x000000007f01e2c0                check_unlock_complete_for_eeprom_stagecomplete_difficulty
                0x000000007f01e504                sub_GAME_7F01E504
                0x000000007f01e5f8                unlock_stage_in_folder_on_difficulty
                0x000000007f01e760                sub_GAME_7F01E760
                0x000000007f01e874                get_highest_stage_difficulty_completed_in_folder
                0x000000007f01e914                check_egypt_completed_in_folder
                0x000000007f01e998                check_egypt_completed_any_folder
                0x000000007f01e9f4                check_cradle_completed_in_folder
                0x000000007f01ea5c                check_aztec_completed_in_folder_secret_00
                0x000000007f01eaa8                check_egypt_completed_in_folder_00
                0x000000007f01ead0                check_cradle_completed_any_folder
                0x000000007f01eb20                check_aztec_completed_any_folder_secret_00
                0x000000007f01eb70                check_egypt_completed_any_folder_00
                0x000000007f01ebc0                removed_would_have_returned_bond_for_folder_num
                0x000000007f01ebcc                set_selected_bond_to_folder
                0x000000007f01ebf4                sub_GAME_7F01EBF4
                0x000000007f01ebfc                sub_GAME_7F01EBFC
                0x000000007f01ec04                delete_eeprom_folder
                0x000000007f01ed10                sub_GAME_7F01ED10
                0x000000007f01eda0                sub_GAME_7F01EDA0
                0x000000007f01ef10                update_eeprom_to_current_solo_watch_settings
                0x000000007f01f030                get_screen_ratio_settings_for_mpgame_from_folder
                0x000000007f01f184                delete_update_eeprom_file
                0x000000007f01f29c                copy_eeprom_to_stack_set_folder_num
                0x000000007f01f394                copy_eeprom_from_to
                0x000000007f01f45c                copy_eepromfile_a0_from_a1_to_buffer
                0x000000007f01f4a0                check_for_007_mode_unlocked
 build/game/actor.o(.text)
 .text          0x000000007f01f530    0x15270 build/game/actor.o
                0x000000007f01f530                get_numguards
                0x000000007f01f53c                get_ptr_allocated_block_for_vertices
                0x000000007f01f55c                set_show_patrols_flag
                0x000000007f01f568                get_show_patrols_flag
                0x000000007f01f574                sub_GAME_7F01F574
                0x000000007f01f5e8                set_or_unset_GUARDdata_flag
                0x000000007f01f614                sub_GAME_7F01F614
                0x000000007f01fc10                sub_GAME_7F01FC10
                0x000000007f01ffc0                get_next_available_guardID
                0x000000007f020018                sub_GAME_7F020018
                0x000000007f02004c                sub_GAME_7F02004C
                0x000000007f020054                sub_GAME_7F020054
                0x000000007f020090                sub_GAME_7F020090
                0x000000007f0200bc                init_GUARDdata_with_set_values
                0x000000007f0203b8                replace_GUARDdata_with_actual_values
                0x000000007f020414                disable_sounds_attached_to_player_then_something
                0x000000007f020540                animation_speed_related
                0x000000007f0205e4                get_animation_rate
                0x000000007f0205f0                sub_GAME_7F0205F0
                0x000000007f0206d4                sub_GAME_7F0206D4
                0x000000007f020794                sub_GAME_7F020794
                0x000000007f02083c                sub_GAME_7F02083C
                0x000000007f020d94                sub_GAME_7F020D94
                0x000000007f020e40                sub_GAME_7F020E40
                0x000000007f020ef0                sub_GAME_7F020EF0
                0x000000007f021b20                sub_GAME_7F021B20
                0x000000007f021bb4                sub_GAME_7F021BB4
                0x000000007f021bd8                sub_GAME_7F021BD8
                0x000000007f021bfc                sub_GAME_7F021BFC
                0x000000007f022078                sub_GAME_7F022078
                0x000000007f0221dc                sub_GAME_7F0221DC
                0x000000007f022648                sub_GAME_7F022648
                0x000000007f022980                sub_GAME_7F022980
                0x000000007f022e1c                sub_GAME_7F022E1C
                0x000000007f022e24                sub_GAME_7F022E24
                0x000000007f022e30                sub_GAME_7F022E30
                0x000000007f022e90                sub_GAME_7F022E90
                0x000000007f022ec8                sub_GAME_7F022EC8
                0x000000007f022ee0                sub_GAME_7F022EE0
                0x000000007f022eec                sub_GAME_7F022EEC
                0x000000007f022fc8                check_if_guardnum_loaded_get_ptr_GUARDdata
                0x000000007f02302c                something_with_weaponpos_of_guarddata_hand
                0x000000007f02303c                is_weapon_in_guarddata_hand
                0x000000007f02308c                sub_GAME_7F02308C
                0x000000007f023160                sub_GAME_7F023160
                0x000000007f023188                sub_GAME_7F023188
                0x000000007f023194                sub_GAME_7F023194
                0x000000007f023290                load_body_head_if_not_loaded
                0x000000007f0232e8                maybe_load_models_for_guards
                0x000000007f0234a8                sub_GAME_7F0234A8
                0x000000007f0234d0                retrieve_header_for_body_and_head
                0x000000007f023590                get_current_random_body
                0x000000007f0235ac                select_psuedorandom_heads
                0x000000007f023660                get_random_head
                0x000000007f02370c                expand_09_characters
                0x000000007f023910                check_if_item_held_like_pistol
                0x000000007f023948                sub_GAME_7F023948
                0x000000007f023a94                sub_GAME_7F023A94
                0x000000007f023b5c                sub_GAME_7F023B5C
                0x000000007f023bc0                sub_GAME_7F023BC0
                0x000000007f023c54                sub_GAME_7F023C54
                0x000000007f023cb8                sub_GAME_7F023CB8
                0x000000007f023e14                sub_GAME_7F023E14
                0x000000007f023e48                sub_GAME_7F023E48
                0x000000007f023e74                actor_kneel
                0x000000007f023fe4                perform_animation_for_actor
                0x000000007f024150                sub_GAME_7F024150
                0x000000007f024238                throw_weapon_in_guard_hand
                0x000000007f024334                sub_GAME_7F024334
                0x000000007f024418                actor_shuffle_feet
                0x000000007f0244ac                actor_fawn_on_shoulder
                0x000000007f024548                actor_look_flustered
                0x000000007f024648                actor_throw_weapon_surrender
                0x000000007f0247b8                actor_fade_away
                0x000000007f024800                sub_GAME_7F024800
                0x000000007f024a84                sub_GAME_7F024A84
                0x000000007f024cf8                sub_GAME_7F024CF8
                0x000000007f024f00                sub_GAME_7F024F00
                0x000000007f024f8c                sub_GAME_7F024F8C
                0x000000007f0250bc                sub_GAME_7F0250BC
                0x000000007f02516c                sub_GAME_7F02516C
                0x000000007f025560                sub_GAME_7F025560
                0x000000007f0256f0                sub_GAME_7F0256F0
                0x000000007f02587c                sub_GAME_7F02587C
                0x000000007f025c40                sub_GAME_7F025C40
                0x000000007f026130                sub_GAME_7F026130
                0x000000007f02624c                sub_GAME_7F02624C
                0x000000007f026298                sub_GAME_7F026298
                0x000000007f026364                sub_GAME_7F026364
                0x000000007f0264b0                sub_GAME_7F0264B0
                0x000000007f026508                triggered_on_shot_hit
                0x000000007f026f30                sub_GAME_7F026F30
                0x000000007f027060                play_sound_for_shot_actor
                0x000000007f02727c                handles_shot_actors
                0x000000007f027804                sub_GAME_7F027804
                0x000000007f027bf4                get_ptrpreset_in_table_matching_tile
                0x000000007f027c60                check_if_any_path_preset_lies_on_tile
                0x000000007f027c84                sub_GAME_7F027C84
                0x000000007f027cd4                sub_GAME_7F027CD4
                0x000000007f027db0                sub_GAME_7F027DB0
                0x000000007f027e70                sub_GAME_7F027E70
                0x000000007f027e90                sub_GAME_7F027E90
                0x000000007f027f20                sub_GAME_7F027F20
                0x000000007f027fa8                sub_GAME_7F027FA8
                0x000000007f028144                sub_GAME_7F028144
                0x000000007f0281f4                sub_GAME_7F0281F4
                0x000000007f0281fc                sub_GAME_7F0281FC
                0x000000007f02828c                sub_GAME_7F02828C
                0x000000007f0282e0                sub_GAME_7F0282E0
                0x000000007f028348                sub_GAME_7F028348
                0x000000007f0283fc                sub_GAME_7F0283FC
                0x000000007f028474                sub_GAME_7F028474
                0x000000007f028494                sub_GAME_7F028494
                0x000000007f0284dc                sub_GAME_7F0284DC
                0x000000007f028510                sub_GAME_7F028510
                0x000000007f028600                sub_GAME_7F028600
                0x000000007f028894                sub_GAME_7F028894
                0x000000007f028a5c                get_sound_at_range
                0x000000007f028da0                play_hit_soundeffect_and_proper_volume
                0x000000007f028ddc                plot_course_for_actor
                0x000000007f028fac                sub_GAME_7F028FAC
                0x000000007f0290f8                set_actor_on_path
                0x000000007f029298                update_GUARDdata_timer_to_current
                0x000000007f0292a8                sub_GAME_7F0292A8
                0x000000007f0294bc                sub_GAME_7F0294BC
                0x000000007f0295d0                check_if_position_in_same_room
                0x000000007f02969c                sub_GAME_7F02969C
                0x000000007f029760                sub_GAME_7F029760
                0x000000007f02982c                sub_GAME_7F02982C
                0x000000007f029a94                sub_GAME_7F029A94
                0x000000007f029af0                sub_GAME_7F029AF0
                0x000000007f029bb0                sub_GAME_7F029BB0
                0x000000007f029c00                sub_GAME_7F029C00
                0x000000007f029c5c                check_if_actor_stationary
                0x000000007f029d70                sub_GAME_7F029D70
                0x000000007f02a044                sub_GAME_7F02A044
                0x000000007f02a0ec                sub_GAME_7F02A0EC
                0x000000007f02a15c                sub_GAME_7F02A15C
                0x000000007f02a1e8                sub_GAME_7F02A1E8
                0x000000007f02a258                true_if_actor_dying_fading_limping_shot
                0x000000007f02a2a4                true_if_actor_dying_fading
                0x000000007f02a2c8                actor_steps_sideways
                0x000000007f02a428                actor_hops_sideways
                0x000000007f02a588                actor_runs_sideways
                0x000000007f02a704                actor_walks_and_fires
                0x000000007f02a7f8                actor_runs_and_fires
                0x000000007f02a8ec                actor_rolls_fires_crouched
                0x000000007f02aa1c                actor_aim_at_actor
                0x000000007f02aa88                actor_kneel_aim_at_actor
                0x000000007f02aaf4                sub_GAME_7F02AAF4
                0x000000007f02ab44                check_set_actor_standing_still
                0x000000007f02abb4                actor_moves_to_preset_at_speed
                0x000000007f02ad54                if_actor_able_set_on_path
                0x000000007f02ad98                sub_GAME_7F02AD98
                0x000000007f02b4e0                sub_GAME_7F02B4E0
                0x000000007f02b4e8                sub_GAME_7F02B4E8
                0x000000007f02b638                sub_GAME_7F02B638
                0x000000007f02b774                manage_guard_fade
                0x000000007f02b800                sub_GAME_7F02B800
                0x000000007f02b9a4                sub_GAME_7F02B9A4
                0x000000007f02bc80                sub_GAME_7F02BC80
                0x000000007f02bd20                sub_GAME_7F02BD20
                0x000000007f02bda4                sub_GAME_7F02BDA4
                0x000000007f02be00                sub_GAME_7F02BE00
                0x000000007f02be58                sub_GAME_7F02BE58
                0x000000007f02bea8                sub_GAME_7F02BEA8
                0x000000007f02bf24                sub_GAME_7F02BF24
                0x000000007f02bfe4                sub_GAME_7F02BFE4
                0x000000007f02c190                sub_GAME_7F02C190
                0x000000007f02c27c                sub_GAME_7F02C27C
                0x000000007f02c2b0                sub_GAME_7F02C2B0
                0x000000007f02c4c0                sub_GAME_7F02C4C0
                0x000000007f02d048                sub_GAME_7F02D048
                0x000000007f02d0f8                sub_GAME_7F02D0F8
                0x000000007f02d118                sub_GAME_7F02D118
                0x000000007f02d148                sub_GAME_7F02D148
                0x000000007f02d184                sub_GAME_7F02D184
                0x000000007f02d1c4                sub_GAME_7F02D1C4
                0x000000007f02d244                sub_GAME_7F02D244
                0x000000007f02d2e4                sub_GAME_7F02D2E4
                0x000000007f02d630                sub_GAME_7F02D630
                0x000000007f02d734                sub_GAME_7F02D734
                0x000000007f02e26c                sub_GAME_7F02E26C
                0x000000007f02e2e0                sub_GAME_7F02E2E0
                0x000000007f02e3b8                sub_GAME_7F02E3B8
                0x000000007f02e4c0                sub_GAME_7F02E4C0
                0x000000007f02ebfc                sub_GAME_7F02EBFC
                0x000000007f02eee0                sub_GAME_7F02EEE0
                0x000000007f02f3f8                sub_GAME_7F02F3F8
                0x000000007f02f5a4                sub_GAME_7F02F5A4
                0x000000007f02f688                sub_GAME_7F02F688
                0x000000007f02f690                sub_GAME_7F02F690
                0x000000007f02f888                sub_GAME_7F02F888
                0x000000007f02fc34                sub_GAME_7F02FC34
                0x000000007f02fd50                sub_GAME_7F02FD50
                0x000000007f02fe78                sub_GAME_7F02FE78
                0x000000007f030128                sub_GAME_7F030128
                0x000000007f0301fc                sub_GAME_7F0301FC
                0x000000007f0304ac                sub_GAME_7F0304AC
                0x000000007f0305e0                sub_GAME_7F0305E0
                0x000000007f03074c                sub_GAME_7F03074C
                0x000000007f03081c                sub_GAME_7F03081C
                0x000000007f030d70                sub_GAME_7F030D70
                0x000000007f03130c                sub_GAME_7F03130C
                0x000000007f0315a4                sub_GAME_7F0315A4
                0x000000007f032088                sub_GAME_7F032088
                0x000000007f032548                sub_GAME_7F032548
                0x000000007f0326bc                sub_GAME_7F0326BC
                0x000000007f03291c                sub_GAME_7F03291C
                0x000000007f032b68                sub_GAME_7F032B68
                0x000000007f032ba0                sub_GAME_7F032BA0
                0x000000007f032bd8                get_distance_actor_to_position
                0x000000007f032c4c                sub_GAME_7F032C4C
                0x000000007f032c78                sub_GAME_7F032C78
                0x000000007f032d70                get_angle_between_actor_cur_player
                0x000000007f032de4                sub_GAME_7F032DE4
                0x000000007f032e48                sub_GAME_7F032E48
                0x000000007f032efc                check_if_room_for_preset_loaded
                0x000000007f032f94                sub_GAME_7F032F94
                0x000000007f032fac                sub_GAME_7F032FAC
                0x000000007f033040                get_handle_for_guard_id
                0x000000007f0330c4                get_distance_between_actor_and_actorID
                0x000000007f033154                get_distance_between_actor_and_preset
                0x000000007f033218                sub_GAME_7F033218
                0x000000007f03322c                sub_GAME_7F03322C
                0x000000007f033244                sub_GAME_7F033244
                0x000000007f033260                sub_GAME_7F033260
                0x000000007f033290                sub_GAME_7F033290
                0x000000007f0332c0                sub_GAME_7F0332C0
                0x000000007f0332fc                toggle_objective_bitflags
                0x000000007f033318                untoggle_objective_bitflags
                0x000000007f033338                check_if_objective_bitflags_set
                0x000000007f033354                check_if_actor_02_flag_set
                0x000000007f033364                check_if_able_to_then_surrender
                0x000000007f0333a0                sub_GAME_7F0333A0
                0x000000007f0333c4                reset_and_start_loop_counter
                0x000000007f0333d8                get_loop_counter_time_in_seconds
                0x000000007f0333f8                sub_GAME_7F0333F8
                0x000000007f033490                check_if_actor_invisible
                0x000000007f0334a0                actor_move_to_curplayer_at_speed
                0x000000007f03350c                actor_move_to_actorID_at_speed
                0x000000007f0335a4                get_times_actor_shot
                0x000000007f0335ac                get_num_shots_near_actor
                0x000000007f0335b4                check_if_actor_FA_target_set
                0x000000007f0335c4                check_if_actor_FB_target_set
                0x000000007f0335d4                sub_GAME_7F0335D4
                0x000000007f033610                check_if_able_to_then_shuffle_feet
                0x000000007f03364c                check_if_able_to_then_fawn_on_shoulder
                0x000000007f033688                check_if_able_to_then_look_flustered
                0x000000007f0336c4                check_if_able_to_then_kneel
                0x000000007f033700                check_if_able_to_then_perform_animation
                0x000000007f033760                alarm_timer_related
                0x000000007f033780                sub_GAME_7F033780
                0x000000007f033834                sub_GAME_7F033834
                0x000000007f033998                check_2328_preset_set_with_method
                0x000000007f033aac                sub_GAME_7F033AAC
                0x000000007f033b38                sub_GAME_7F033B38
                0x000000007f033cf4                sub_GAME_7F033CF4
                0x000000007f033d1c                sub_GAME_7F033D1C
                0x000000007f033d5c                sub_GAME_7F033D5C
                0x000000007f033d84                sub_GAME_7F033D84
                0x000000007f033dc4                sub_GAME_7F033DC4
                0x000000007f033eac                sub_GAME_7F033EAC
                0x000000007f033f48                sub_GAME_7F033F48
                0x000000007f03415c                actionblock_guard_constructor_BDBE
                0x000000007f034258                guard_constructor_BD
                0x000000007f034308                guard_constructor_BE
                0x000000007f034388                check_if_actorID_is_at_preset
                0x000000007f03444c                check_if_actor_is_at_preset
                0x000000007f0344fc                removed_animation_routine_27
                0x000000007f034508                removed_animation_routine_2B
                0x000000007f034514                sub_GAME_7F034514
                0x000000007f03457c                actor_draws_throws_grenade_at_player_if_possible
                0x000000007f0346fc                actor_drops_itemtype_setting_timer
 build/game/actionblock.o(.text)
 .text          0x000000007f0347a0    0x220b0 build/game/actionblock.o
                0x000000007f0347a0                set_sound_effect_source_to_location
                0x000000007f0348e4                loop_set_sound_effect_all_slots
                0x000000007f034924                set_sound_effect_to_slot
                0x000000007f0349bc                sub_GAME_7F0349BC
                0x000000007f0349fc                get_length_of_action_block
                0x000000007f035244                sub_GAME_7F035244
                0x000000007f0352f0                true_if_sucessfully_performing_action
                0x000000007f035398                LoadNext_PrevActionBlock
                0x000000007f035434                get_ptr_path_for_pathnum
                0x000000007f035484                parse_handle_actionblocks
                0x000000007f03a240                sub_GAME_7F03A240
                0x000000007f03a404                set_stateflag_0x04_for_posdata
                0x000000007f03a414                unset_stateflag_0x04_for_posdata
                0x000000007f03a424                get_ptr_obj_pos_list_current_entry
                0x000000007f03a430                remove_last_obj_pos_data_entry
                0x000000007f03a484                set_last_obj_pos_data
                0x000000007f03a4a4                set_current_objposdata_plus_0x28
                0x000000007f03a4f0                sub_GAME_7F03A4F0
                0x000000007f03a538                sub_GAME_7F03A538
                0x000000007f03a5a4                sub_GAME_7F03A5A4
                0x000000007f03a5d0                sub_GAME_7F03A5D0
                0x000000007f03a62c                sub_GAME_7F03A62C
                0x000000007f03a6f4                sub_GAME_7F03A6F4
                0x000000007f03a97c                sub_GAME_7F03A97C
                0x000000007f03aa44                sub_GAME_7F03AA44
                0x000000007f03ab58                sub_GAME_7F03AB58
                0x000000007f03adf4                sub_GAME_7F03ADF4
                0x000000007f03af5c                sub_GAME_7F03AF5C
                0x000000007f03b15c                sub_GAME_7F03B15C
                0x000000007f03b9c0                sub_GAME_7F03B9C0
                0x000000007f03bdec                sub_GAME_7F03BDEC
                0x000000007f03c0f0                sub_GAME_7F03C0F0
                0x000000007f03c294                sub_GAME_7F03C294
                0x000000007f03c2bc                sub_GAME_7F03C2BC
                0x000000007f03c3fc                sub_GAME_7F03C3FC
                0x000000007f03c4f0                sub_GAME_7F03C4F0
                0x000000007f03c574                sub_GAME_7F03C574
                0x000000007f03c648                handle_mp_respawn_and_some_things
                0x000000007f03ca30                determing_type_of_object_and_detection
                0x000000007f03cb8c                sub_GAME_7F03CB8C
                0x000000007f03cc20                sub_GAME_7F03CC20
                0x000000007f03ccb0                sub_GAME_7F03CCB0
                0x000000007f03ccd8                sub_GAME_7F03CCD8
                0x000000007f03cf88                sub_GAME_7F03CF88
                0x000000007f03cfe8                sub_GAME_7F03CFE8
                0x000000007f03d058                sub_GAME_7F03D058
                0x000000007f03d0d4                sub_GAME_7F03D0D4
                0x000000007f03d188                sub_GAME_7F03D188
                0x000000007f03d78c                sub_GAME_7F03D78C
                0x000000007f03d9ec                sub_GAME_7F03D9EC
                0x000000007f03da50                sub_GAME_7F03DA50
                0x000000007f03db70                sub_GAME_7F03DB70
                0x000000007f03dbcc                sub_GAME_7F03DBCC
                0x000000007f03dcb8                sub_GAME_7F03DCB8
                0x000000007f03dd9c                sub_GAME_7F03DD9C
                0x000000007f03de94                sub_GAME_7F03DE94
                0x000000007f03e134                sub_GAME_7F03E134
                0x000000007f03e18c                sub_GAME_7F03E18C
                0x000000007f03e210                sub_GAME_7F03E210
                0x000000007f03e27c                sub_GAME_7F03E27C
                0x000000007f03e3fc                sub_GAME_7F03E3FC
                0x000000007f03e4f0                sub_GAME_7F03E4F0
                0x000000007f03e698                removed_debug_roomblocks_feature
                0x000000007f03e6a0                sub_GAME_7F03E6A0
                0x000000007f03e718                sub_GAME_7F03E718
                0x000000007f03e7ac                sub_GAME_7F03E7AC
                0x000000007f03e830                sub_GAME_7F03E830
                0x000000007f03e85c                sub_GAME_7F03E85C
                0x000000007f03e864                sub_GAME_7F03E864
                0x000000007f03e86c                sub_GAME_7F03E86C
                0x000000007f03e874                sub_GAME_7F03E874
                0x000000007f03e87c                sub_GAME_7F03E87C
                0x000000007f03e91c                sub_GAME_7F03E91C
                0x000000007f03e9bc                sub_GAME_7F03E9BC
                0x000000007f03ea5c                sub_GAME_7F03EA5C
                0x000000007f03eafc                sub_GAME_7F03EAFC
                0x000000007f03eb9c                sub_GAME_7F03EB9C
                0x000000007f03ec3c                sub_GAME_7F03EC3C
                0x000000007f03ecc0                sub_GAME_7F03ECC0
                0x000000007f03f540                sub_GAME_7F03F540
                0x000000007f03f598                sub_GAME_7F03F598
                0x000000007f03f748                sub_GAME_7F03F748
                0x000000007f03f90c                sub_GAME_7F03F90C
                0x000000007f03f948                sub_GAME_7F03F948
                0x000000007f03fa44                scan_position_data_table_for_normal_object_at_preset
                0x000000007f03fab0                sub_GAME_7F03FAB0
                0x000000007f03fb70                sub_GAME_7F03FB70
                0x000000007f03fbfc                sub_GAME_7F03FBFC
                0x000000007f03fc80                sub_GAME_7F03FC80
                0x000000007f03fda8                sub_GAME_7F03FDA8
                0x000000007f03fe14                sub_GAME_7F03FE14
                0x000000007f03fe88                sub_GAME_7F03FE88
                0x000000007f03fe98                sub_GAME_7F03FE98
                0x000000007f03ff60                sub_GAME_7F03FF60
                0x000000007f03ffc0                do_something_if_object_destroyed
                0x000000007f03fff8                sub_GAME_7F03FFF8
                0x000000007f040078                sub_GAME_7F040078
                0x000000007f04009c                sub_GAME_7F04009C
                0x000000007f0402b4                sub_GAME_7F0402B4
                0x000000007f040310                sub_GAME_7F040310
                0x000000007f040384                sub_GAME_7F040384
                0x000000007f040484                sub_GAME_7F040484
                0x000000007f04054c                init_standard_object
                0x000000007f0406f8                sub_GAME_7F0406F8
                0x000000007f04071c                sub_GAME_7F04071C
                0x000000007f040754                sub_GAME_7F040754
                0x000000007f0407f4                sub_GAME_7F0407F4
                0x000000007f04088c                sub_GAME_7F04088C
                0x000000007f040ba0                sub_GAME_7F040BA0
                0x000000007f040cf0                sub_GAME_7F040CF0
                0x000000007f040d98                sub_GAME_7F040D98
                0x000000007f041024                sub_GAME_7F041024
                0x000000007f041044                if_a0_plus_3_is_4_then_10_else_20
                0x000000007f041074                sub_GAME_7F041074
                0x000000007f041160                sub_GAME_7F041160
                0x000000007f041400                sub_GAME_7F041400
                0x000000007f0417dc                sub_GAME_7F0417DC
                0x000000007f0419e4                sub_GAME_7F0419E4
                0x000000007f041bb8                sub_GAME_7F041BB8
                0x000000007f041e0c                sub_GAME_7F041E0C
                0x000000007f04224c                handles_projectile_motion
                0x000000007f042a0c                sub_GAME_7F042A0C
                0x000000007f042eb4                sub_GAME_7F042EB4
                0x000000007f042f18                sub_GAME_7F042F18
                0x000000007f04310c                sub_GAME_7F04310C
                0x000000007f0431e4                sub_GAME_7F0431E4
                0x000000007f043650                sub_GAME_7F043650
                0x000000007f043838                sub_GAME_7F043838
                0x000000007f0439b8                sub_GAME_7F0439B8
                0x000000007f043a6c                sub_GAME_7F043A6C
                0x000000007f043b7c                generate_explosion_at_position
                0x000000007f043d70                handle_thrown_explosive_detonation
                0x000000007f044200                sub_GAME_7F044200
                0x000000007f04424c                sub_GAME_7F04424C
                0x000000007f0442dc                sub_GAME_7F0442DC
                0x000000007f044414                sub_GAME_7F044414
                0x000000007f0446b8                sub_GAME_7F0446B8
                0x000000007f044718                sub_GAME_7F044718
                0x000000007f0448a8                sub_GAME_7F0448A8
                0x000000007f044b38                sub_GAME_7F044B38
                0x000000007f0451dc                sub_GAME_7F0451DC
                0x000000007f0452d4                object_interaction
                0x000000007f049b58                sub_GAME_7F049B58
                0x000000007f049c8c                save_ptr_monitor_ani_code_to_obj_ani_slot
                0x000000007f049c98                set_ptr_monitor_img_to_obj_ani_slot
                0x000000007f049f40                save_img_index_to_obj_ani_slot
                0x000000007f049f48                process_monitor_animation_microcode
                0x000000007f04ac20                sub_GAME_7F04AC20
                0x000000007f04b150                sub_GAME_7F04B150
                0x000000007f04b478                sub_GAME_7F04B478
                0x000000007f04b590                sub_GAME_7F04B590
                0x000000007f04b610                sub_GAME_7F04B610
                0x000000007f04bcdc                sub_GAME_7F04BCDC
                0x000000007f04bfd0                sub_GAME_7F04BFD0
                0x000000007f04c044                sub_GAME_7F04C044
                0x000000007f04c130                sub_GAME_7F04C130
                0x000000007f04ca44                sub_GAME_7F04CA44
                0x000000007f04cd04                sub_GAME_7F04CD04
                0x000000007f04ce0c                object_explosion_related
                0x000000007f04d16c                sub_GAME_7F04D16C
                0x000000007f04d9b0                sub_GAME_7F04D9B0
                0x000000007f04dcb4                sub_GAME_7F04DCB4
                0x000000007f04dd68                sub_GAME_7F04DD68
                0x000000007f04de18                sub_GAME_7F04DE18
                0x000000007f04defc                sub_GAME_7F04DEFC
                0x000000007f04dfd0                check_if_destroyable_object_type
                0x000000007f04e00c                check_if_collectable_object
                0x000000007f04e048                check_if_destroyable_not_invincible
                0x000000007f04e0cc                sub_GAME_7F04E0CC
                0x000000007f04e108                maybe_detonate_object
                0x000000007f04e720                sub_GAME_7F04E720
                0x000000007f04e9bc                sub_GAME_7F04E9BC
                0x000000007f04ea68                sub_GAME_7F04EA68
                0x000000007f04ef34                check_if_object_has_not_been_destroyed
                0x000000007f04ef58                sub_GAME_7F04EF58
                0x000000007f04f170                sub_GAME_7F04F170
                0x000000007f04f218                sub_GAME_7F04F218
                0x000000007f04f244                sub_GAME_7F04F244
                0x000000007f04f2b4                append_text_picked_up
                0x000000007f04f2ec                append_text_ammo_amount_word
                0x000000007f04f40c                apped_text_ammotype
                0x000000007f04f788                set_sound_effect_for_ammo_collection
                0x000000007f04f810                set_sound_effect_for_weapontype_collection
                0x000000007f04f920                display_ammo_type_collection_text
                0x000000007f04f9f8                display_text_when_ammo_collected
                0x000000007f04fa68                add_ammo_to_inventory
                0x000000007f04fc3c                get_ammo_in_magazine
                0x000000007f04fcf8                ammo_collected_from_weapon
                0x000000007f04fde0                generate_language_specific_text_for_weapon
                0x000000007f050224                display_text_for_weapon_in_lower_left_corner
                0x000000007f050250                collect_or_interact_object
                0x000000007f0506dc                object_collectability_routines
                0x000000007f050d30                sub_GAME_7F050D30
                0x000000007f050de8                sub_GAME_7F050DE8
                0x000000007f050f50                sub_GAME_7F050F50
                0x000000007f051028                sub_GAME_7F051028
                0x000000007f051084                sub_GAME_7F051084
                0x000000007f0510c0                sub_GAME_7F0510C0
                0x000000007f05126c                sub_GAME_7F05126C
                0x000000007f051588                sub_GAME_7F051588
                0x000000007f0515b0                sub_GAME_7F0515B0
                0x000000007f0518a8                sub_GAME_7F0518A8
                0x000000007f0518d0                sub_GAME_7F0518D0
                0x000000007f051a18                trigger_remote_mine_detonation
                0x000000007f051a68                check_if_entry_is_collectable
                0x000000007f051aec                check_if_item_deposited
                0x000000007f051b5c                add_obj_to_temp_proxmine_table
                0x000000007f051b94                remove_obj_from_temp_proxmine_table
                0x000000007f051bcc                detonate_proxmine_In_range
                0x000000007f051cc8                sub_GAME_7F051CC8
                0x000000007f051d74                link_objects
                0x000000007f051d90                complete_object_data_block_return_position_entry
                0x000000007f051dd8                sub_GAME_7F051DD8
                0x000000007f051e1c                sub_GAME_7F051E1C
                0x000000007f051f30                sub_GAME_7F051F30
                0x000000007f051fd4                sub_GAME_7F051FD4
                0x000000007f052030                sub_GAME_7F052030
                0x000000007f05206c                create_new_item_instance_of_model
                0x000000007f0521e8                set_0x4_in_runtime_flags_for_item_in_guards_hand
                0x000000007f052214                something_with_generating_object
                0x000000007f0523d4                actor_draws_weapon_with_model
                0x000000007f0523f8                sub_GAME_7F0523F8
                0x000000007f052554                redirect_object_collectability_routines
                0x000000007f052574                sub_GAME_7F052574
                0x000000007f052604                sub_GAME_7F052604
                0x000000007f052684                get_hat_model
                0x000000007f0526ec                sub_GAME_7F0526EC
                0x000000007f052b00                sub_GAME_7F052B00
                0x000000007f052d8c                sub_GAME_7F052D8C
                0x000000007f053598                sub_GAME_7F053598
                0x000000007f0535c4                sub_GAME_7F0535C4
                0x000000007f0535f0                initialize_door
                0x000000007f0537b8                sub_GAME_7F0537B8
                0x000000007f053894                sub_GAME_7F053894
                0x000000007f05396c                sub_GAME_7F05396C
                0x000000007f0539b8                sub_GAME_7F0539B8
                0x000000007f0539e4                sub_GAME_7F0539E4
                0x000000007f053a10                sub_GAME_7F053A10
                0x000000007f053a3c                sub_GAME_7F053A3C
                0x000000007f053b10                sub_GAME_7F053B10
                0x000000007f053b78                play_door_opening_soundeffect_0
                0x000000007f053f64                play_door_opening_soundeffect_1
                0x000000007f0542c4                play_door_closing_soundeffect_0
                0x000000007f0544b8                play_door_closing_soundeffect_1
                0x000000007f05474c                sub_GAME_7F05474C
                0x000000007f0547dc                sub_GAME_7F0547DC
                0x000000007f05480c                sub_GAME_7F05480C
                0x000000007f05487c                sub_GAME_7F05487C
                0x000000007f0548a4                sub_GAME_7F0548A4
                0x000000007f054988                set_door_state
                0x000000007f054a20                sub_GAME_7F054A20
                0x000000007f054a64                sub_GAME_7F054A64
                0x000000007f054b80                sub_GAME_7F054B80
                0x000000007f054c58                sub_GAME_7F054C58
                0x000000007f054d6c                sub_GAME_7F054D6C
                0x000000007f054ea8                sub_GAME_7F054EA8
                0x000000007f054fb4                sub_GAME_7F054FB4
                0x000000007f05522c                sub_GAME_7F05522C
                0x000000007f0555f8                sub_GAME_7F0555F8
                0x000000007f055804                sub_GAME_7F055804
                0x000000007f05599c                sub_GAME_7F05599C
                0x000000007f055a70                sub_GAME_7F055A70
                0x000000007f055b78                sub_GAME_7F055B78
                0x000000007f055c40                sub_GAME_7F055C40
                0x000000007f055dc8                start_alarm
                0x000000007f055dec                deactivate_alarm_sound_effect
                0x000000007f055e2c                stop_alarm
                0x000000007f055e50                is_alarm_on
                0x000000007f055e64                init_trigger_toxic_gas_effect
                0x000000007f055ef8                sub_GAME_7F055EF8
                0x000000007f055f38                check_if_toxic_gas_activated
                0x000000007f055f64                sub_GAME_7F055F64
                0x000000007f056160                set_unset_clock_lock_bits
                0x000000007f05619c                is_clock_drawn_onscreen
                0x000000007f0561b0                set_clock_time
                0x000000007f0561bc                get_clock_time
                0x000000007f0561c8                set_clock_enable
                0x000000007f0561d4                get_clock_enable
                0x000000007f0561e0                sub_GAME_7F0561E0
                0x000000007f056210                sub_GAME_7F056210
                0x000000007f0565f0                sub_GAME_7F0565F0
                0x000000007f056690                sub_GAME_7F056690
                0x000000007f05677c                drop_inventory
 build/game/loadobjectmodel.o(.text)
 .text          0x000000007f056850      0x830 build/game/loadobjectmodel.o
                0x000000007f056850                sub_GAME_7F056850
                0x000000007f0568f4                get_size_of_setup_object_type
                0x000000007f056a88                sub_GAME_7F056A88
                0x000000007f056b1c                sub_GAME_7F056B1C
                0x000000007f056ba8                sub_GAME_7F056BA8
                0x000000007f056c38                load_model
                0x000000007f056ca0                sub_GAME_7F056CA0
                0x000000007f056ea0                sub_GAME_7F056EA0
                0x000000007f056f08                sub_GAME_7F056F08
 build/game/objective_status.o(.text)
 .text          0x000000007f057080      0xe20 build/game/objective_status.o
                0x000000007f057080                sub_GAME_7F057080
                0x000000007f0570c0                get_handle_to_tagged_object
                0x000000007f057104                get_ptr_text_for_watch_breifing_page
                0x000000007f0571a8                add_objective
                0x000000007f0571b8                get_text_for_objective
                0x000000007f057204                get_difficulty_for_objective
                0x000000007f057238                get_status_of_objective
                0x000000007f0574b8                check_objectives_complete
                0x000000007f057540                display_objective_status_text_on_status_change
                0x000000007f057744                sub_GAME_7F057744
                0x000000007f0577e8                sub_GAME_7F0577E8
                0x000000007f057898                sub_GAME_7F057898
                0x000000007f057ac0                sub_GAME_7F057AC0
                0x000000007f057c14                sub_GAME_7F057C14
                0x000000007f057d44                sub_GAME_7F057D44
                0x000000007f057d88                sub_GAME_7F057D88
                0x000000007f057df8                sub_GAME_7F057DF8
                0x000000007f057e58                sub_GAME_7F057E58
 build/game/sin.o(.text)
 .text          0x000000007f057ea0      0x130 build/game/sin.o
                0x000000007f057ea0                cosf
                0x000000007f057eac                sinf
                0x000000007f057fc4                func_7F057FC4
 build/game/unk_057FD0.o(.text)
 .text          0x000000007f057fd0     0x2a10 build/game/unk_057FD0.o
                0x000000007f057fd0                init_0x40_bytes_data_at_address_last_word_1_0
                0x000000007f058020                sub_GAME_7F058020
                0x000000007f058068                sub_GAME_7F058068
                0x000000007f058098                sub_GAME_7F058098
                0x000000007f0580c8                sub_GAME_7F0580C8
                0x000000007f05818c                sub_GAME_7F05818C
                0x000000007f058274                sub_GAME_7F058274
                0x000000007f058380                sub_GAME_7F058380
                0x000000007f0583d8                sub_GAME_7F0583D8
                0x000000007f058418                sub_GAME_7F058418
                0x000000007f058474                sub_GAME_7F058474
                0x000000007f0584d0                sub_GAME_7F0584D0
                0x000000007f058570                sub_GAME_7F058570
                0x000000007f0585fc                sub_GAME_7F0585FC
                0x000000007f058688                sub_GAME_7F058688
                0x000000007f058714                sub_GAME_7F058714
                0x000000007f058860                sub_GAME_7F058860
                0x000000007f05892c                sub_GAME_7F05892C
                0x000000007f058964                init_something_copy_posdata_to_it
                0x000000007f058998                copies_first_3_floats_from_a0_to_a1_plus_0x30
                0x000000007f0589b4                sub_GAME_7F0589B4
                0x000000007f0589e4                sub_GAME_7F0589E4
                0x000000007f058a14                sub_GAME_7F058A14
                0x000000007f058a4c                sub_GAME_7F058A4C
                0x000000007f058a7c                matrix_multiply_A1_by_F12
                0x000000007f058b10                sub_GAME_7F058B10
                0x000000007f058b80                sub_GAME_7F058B80
                0x000000007f058bb8                sub_GAME_7F058BB8
                0x000000007f058c4c                sub_GAME_7F058C4C
                0x000000007f058c64                sub_GAME_7F058C64
                0x000000007f058c88                sub_GAME_7F058C88
                0x000000007f058c9c                sub_GAME_7F058C9C
                0x000000007f058e78                sub_GAME_7F058E78
                0x000000007f059044                sub_GAME_7F059044
                0x000000007f05914c                sub_GAME_7F05914C
                0x000000007f059244                sub_GAME_7F059244
                0x000000007f059334                sub_GAME_7F059334
                0x000000007f059424                sub_GAME_7F059424
                0x000000007f059694                sub_GAME_7F059694
                0x000000007f059708                sub_GAME_7F059708
                0x000000007f059908                sub_GAME_7F059908
                0x000000007f05997c                sub_GAME_7F05997C
                0x000000007f059a48                sub_GAME_7F059A48
                0x000000007f059b58                sub_GAME_7F059B58
                0x000000007f059ce8                sub_GAME_7F059CE8
                0x000000007f059d30                sub_GAME_7F059D30
                0x000000007f059d38                sub_GAME_7F059D38
                0x000000007f059dac                sub_GAME_7F059DAC
                0x000000007f059e64                sub_GAME_7F059E64
                0x000000007f059fb8                sub_GAME_7F059FB8
                0x000000007f05a250                sub_GAME_7F05A250
                0x000000007f05a310                sub_GAME_7F05A310
                0x000000007f05a774                sub_GAME_7F05A774
                0x000000007f05a928                sub_GAME_7F05A928
                0x000000007f05a9b8                sub_GAME_7F05A9B8
 build/game/unk_05A9E0.o(.text)
 .text          0x000000007f05a9e0       0x50 build/game/unk_05A9E0.o
                0x000000007f05a9e0                sub_GAME_7F05A9E0
 build/game/convertangleusinginverse.o(.text)
 .text          0x000000007f05aa30      0x140 build/game/convertangleusinginverse.o
                0x000000007f05aa30                convert_angle_using_inverse
 build/game/unk_05AB70.o(.text)
 .text          0x000000007f05ab70      0x140 build/game/unk_05AB70.o
                0x000000007f05ab70                sub_GAME_7F05AB70
                0x000000007f05abf0                sub_GAME_7F05ABF0
                0x000000007f05ac44                sub_GAME_7F05AC44
 build/game/unk_05ACB0.o(.text)
 .text          0x000000007f05acb0      0x150 build/game/unk_05ACB0.o
                0x000000007f05acb0                sub_GAME_7F05ACB0
                0x000000007f05ad5c                sub_GAME_7F05AD5C
 build/game/unk_05AE00.o(.text)
 .text          0x000000007f05ae00      0x3e0 build/game/unk_05AE00.o
                0x000000007f05ae00                sub_GAME_7F05AE00
                0x000000007f05ae50                sub_GAME_7F05AE50
                0x000000007f05aefc                sub_GAME_7F05AEFC
                0x000000007f05b024                sub_GAME_7F05B024
                0x000000007f05b154                sub_GAME_7F05B154
 build/game/unk_05B1E0.o(.text)
 .text          0x000000007f05b1e0     0x1180 build/game/unk_05B1E0.o
                0x000000007f05b1e0                sub_GAME_7F05B1E0
                0x000000007f05b3f4                sub_GAME_7F05B3F4
                0x000000007f05b528                sub_GAME_7F05B528
                0x000000007f05b57c                sub_GAME_7F05B57C
                0x000000007f05b5d4                sub_GAME_7F05B5D4
                0x000000007f05b628                sub_GAME_7F05B628
                0x000000007f05b798                sub_GAME_7F05B798
                0x000000007f05b9b4                sub_GAME_7F05B9B4
                0x000000007f05ba08                sub_GAME_7F05BA08
                0x000000007f05bc68                sub_GAME_7F05BC68
                0x000000007f05be10                sub_GAME_7F05BE10
                0x000000007f05be88                sub_GAME_7F05BE88
                0x000000007f05bf8c                sub_GAME_7F05BF8C
                0x000000007f05bfd4                sub_GAME_7F05BFD4
                0x000000007f05c068                sub_GAME_7F05C068
                0x000000007f05c138                sub_GAME_7F05C138
                0x000000007f05c250                sub_GAME_7F05C250
                0x000000007f05c2f0                sub_GAME_7F05C2F0
 build/game/truncf.o(.text)
 .text          0x000000007f05c360       0xe0 build/game/truncf.o
                0x000000007f05c360                truncf
                0x000000007f05c3d8                sub_GAME_7F05C3D8
 build/game/unk_05C440.o(.text)
 .text          0x000000007f05c440       0xe0 build/game/unk_05C440.o
                0x000000007f05c440                sub_GAME_7F05C440
                0x000000007f05c4b8                sub_GAME_7F05C4B8
 build/game/bondview.o(.text)
 .text          0x000000007f05c520     0xec00 build/game/bondview.o
                0x000000007f05c520                sub_GAME_7F05C520
                0x000000007f05c52c                sub_GAME_7F05C52C
                0x000000007f05c538                nullsub_73
                0x000000007f05c540                sub_GAME_7F05C540
                0x000000007f05c594                sub_GAME_7F05C594
                0x000000007f05c614                sub_GAME_7F05C614
                0x000000007f05c6b8                sub_GAME_7F05C6B8
                0x000000007f05c6fc                sub_GAME_7F05C6FC
                0x000000007f05c8b4                get_ptr_item_statistics
                0x000000007f05c8f0                copy_item_in_hand
                0x000000007f05c938                copy_item_in_hand_to_main_list
                0x000000007f05c980                unknown_takes_playerhand
                0x000000007f05cebc                sub_GAME_7F05CEBC
                0x000000007f05cf00                get_itemtype_in_hand
                0x000000007f05cf18                get_ptr_itemheader_in_hand
                0x000000007f05cf30                sub_GAME_7F05CF30
                0x000000007f05cf48                sub_GAME_7F05CF48
                0x000000007f05cf5c                remove_item_in_hand
                0x000000007f05cfa4                place_item_in_hand_swap_and_make_visible
                0x000000007f05d018                get_ptr_item_text_call_line
                0x000000007f05d048                get_ptr_weapon_model_header_line
                0x000000007f05d078                sub_GAME_7F05D078
                0x000000007f05d088                used_to_load_1st_person_model_on_demand
                0x000000007f05d334                sub_GAME_7F05D334
                0x000000007f05d434                get_next_weapon_in_cycle_for_hand
                0x000000007f05d4e0                sub_GAME_7F05D4E0
                0x000000007f05d610                sub_GAME_7F05D610
                0x000000007f05d650                sub_GAME_7F05D650
                0x000000007f05d690                sub_GAME_7F05D690
                0x000000007f05d6d0                advance_through_inventory
                0x000000007f05d768                backstep_through_inventory
                0x000000007f05d800                autoadvance_on_deplete_all_ammo
                0x000000007f05d914                draw_item_in_hand_has_more_ammo
                0x000000007f05d964                attempt_reload_item_in_hand
                0x000000007f05d9d0                get_item_in_hand
                0x000000007f05da00                draw_item_in_hand
                0x000000007f05da44                return_ammo_in_hand
                0x000000007f05da8c                sub_GAME_7F05DA8C
                0x000000007f05dae4                sub_GAME_7F05DAE4
                0x000000007f05db54                remove_hands_item
                0x000000007f05dc88                get_hands_firing_status
                0x000000007f05dcb8                sub_GAME_7F05DCB8
                0x000000007f05dce8                sub_GAME_7F05DCE8
                0x000000007f05dd38                sub_GAME_7F05DD38
                0x000000007f05dda4                sub_GAME_7F05DDA4
                0x000000007f05de94                sub_GAME_7F05DE94
                0x000000007f05df84                sub_GAME_7F05DF84
                0x000000007f05dfa8                sub_GAME_7F05DFA8
                0x000000007f05dfcc                sub_GAME_7F05DFCC
                0x000000007f05dff0                sub_GAME_7F05DFF0
                0x000000007f05e014                sub_GAME_7F05E014
                0x000000007f05e038                sub_GAME_7F05E038
                0x000000007f05e05c                check_if_have_ammo_for_item
                0x000000007f05e0b4                check_special_attributes
                0x000000007f05e0e4                sub_GAME_7F05E0E4
                0x000000007f05e5f0                sub_GAME_7F05E5F0
                0x000000007f05e664                get_value_if_watch_is_on_hand_or_not
                0x000000007f05e6b4                sub_GAME_7F05E6B4
                0x000000007f05e808                sub_GAME_7F05E808
                0x000000007f05e83c                sub_GAME_7F05E83C
                0x000000007f05e978                sub_GAME_7F05E978
                0x000000007f05ea94                sub_GAME_7F05EA94
                0x000000007f05eb0c                sub_GAME_7F05EB0C
                0x000000007f05ec1c                sub_GAME_7F05EC1C
                0x000000007f05ee24                sub_GAME_7F05EE24
                0x000000007f05f09c                sub_GAME_7F05F09C
                0x000000007f05f358                generate_player_thrown_object
                0x000000007f05f73c                sub_GAME_7F05F73C
                0x000000007f05f928                sub_GAME_7F05F928
                0x000000007f05fa7c                sub_GAME_7F05FA7C
                0x000000007f05fb00                sub_GAME_7F05FB00
                0x000000007f05fb64                sub_GAME_7F05FB64
                0x000000007f05ffc8                handles_firing_or_throwing_weapon_in_hand
                0x000000007f061920                sub_GAME_7F061920
                0x000000007f061948                sub_GAME_7F061948
                0x000000007f061bf4                sub_GAME_7F061BF4
                0x000000007f061e18                sub_GAME_7F061E18
                0x000000007f062b00                sub_GAME_7F062B00
                0x000000007f062be4                sub_GAME_7F062BE4
                0x000000007f063004                set_enviro_fog_for_items_in_solo_watch_menu
                0x000000007f0634d8                sub_GAME_7F0634D8
                0x000000007f0634fc                sub_GAME_7F0634FC
                0x000000007f06351c                sub_GAME_7F06351C
                0x000000007f06359c                sub_GAME_7F06359C
                0x000000007f064364                sub_GAME_7F064364
                0x000000007f0643a0                sub_GAME_7F0643A0
                0x000000007f06441c                recall_joy2_hits_edit_detail_edit_flag
                0x000000007f064720                sub_GAME_7F064720
                0x000000007f064774                recall_joy2_hits_edit_flag
                0x000000007f064934                sub_GAME_7F064934
                0x000000007f0649ac                sub_GAME_7F0649AC
                0x000000007f0649d8                sub_GAME_7F0649D8
                0x000000007f064b28                handle_weapon_id_values_possibly_1st_person_animation
                0x000000007f066ef8                get_keyanalyzer_flag
                0x000000007f066f08                sub_GAME_7F066F08
                0x000000007f066fa4                get_vertical_position_solo_watch_menu_main_page_for_item
                0x000000007f066fc0                get_lateral_position_solo_watch_menu_main_page_for_item
                0x000000007f066fdc                get_depth_on_solo_watch_menu_page_for_item
                0x000000007f066ff8                get_zrotation_solo_watch_menu_for_item
                0x000000007f067014                get_xrotation_solo_watch_menu_for_item
                0x000000007f067030                get_45_degree_angle
                0x000000007f067040                get_ptr_first_title_line_item
                0x000000007f067074                get_ptr_second_title_line_item
                0x000000007f0670a8                get_ptr_short_watch_text_for_item
                0x000000007f0670dc                get_ptr_long_watch_text_for_item
                0x000000007f067110                get_45_degree_angle_0
                0x000000007f067120                get_horizontal_offset_on_solo_watch_menu_for_item
                0x000000007f06713c                get_vertical_offset_on_solo_watch_menu_for_item
                0x000000007f067158                get_depth_offset_solo_watch_menu_inventory_page_for_item
                0x000000007f067174                sub_GAME_7F067174
                0x000000007f0671a4                sub_GAME_7F0671A4
                0x000000007f0673b4                sub_GAME_7F0673B4
                0x000000007f067420                sub_GAME_7F067420
                0x000000007f067aa4                sub_GAME_7F067AA4
                0x000000007f067ab4                sub_GAME_7F067AB4
                0x000000007f067b4c                sub_GAME_7F067B4C
                0x000000007f067b94                caclulate_gun_crosshair_position_rotation
                0x000000007f067f58                sub_GAME_7F067F58
                0x000000007f067fbc                sub_GAME_7F067FBC
                0x000000007f068008                sub_GAME_7F068008
                0x000000007f06802c                sub_GAME_7F06802C
                0x000000007f0680d4                sub_GAME_7F0680D4
                0x000000007f068190                sub_GAME_7F068190
                0x000000007f0681cc                sub_GAME_7F0681CC
                0x000000007f068420                sub_GAME_7F068420
                0x000000007f068508                sub_GAME_7F068508
                0x000000007f068d20                sub_GAME_7F068D20
                0x000000007f068e6c                sub_GAME_7F068E6C
                0x000000007f068ec4                sub_GAME_7F068EC4
                0x000000007f06908c                sub_GAME_7F06908C
                0x000000007f0690f4                set_unset_ammo_on_screen_setting
                0x000000007f069130                give_cur_player_ammo
                0x000000007f069240                check_cur_player_ammo_amount_in_inventory
                0x000000007f069258                check_cur_player_ammo_amount_total
                0x000000007f0692d4                get_max_ammo_for_type
                0x000000007f0692f0                set_max_ammo_for_cur_player
                0x000000007f069344                get_ammo_in_hands_magazine
                0x000000007f069374                get_ammo_in_hands_weapon
                0x000000007f06942c                get_ammo_type_for_weapon
                0x000000007f069450                get_ammo_count_for_weapon
                0x000000007f069484                add_ammo_to_weapon
                0x000000007f0694b0                get_max_ammo_for_weapon
                0x000000007f0694e8                microcode_generation_ammo_related
                0x000000007f0699e4                set_rgba_redirect_generate_microcode
                0x000000007f069a50                some_kind_of_display_routine
                0x000000007f069c8c                display_ammo_total_in_a1
                0x000000007f069cf4                generate_ammo_total_microcode
                0x000000007f06a334                sub_GAME_7F06A334
                0x000000007f06a5a8                set_unset_bitflags
                0x000000007f06a5e4                sub_GAME_7F06A5E4
                0x000000007f06a6f8                inc_curplayer_hitcount_with_weapon
                0x000000007f06a740                get_curplayer_shot_register
                0x000000007f06a758                inc_cur_civilian_casualties
                0x000000007f06a770                get_civilian_casualties
                0x000000007f06a780                increment_num_kills_display_text_in_MP
                0x000000007f06a924                get_curplay_killcount
                0x000000007f06a934                increment_num_times_killed_MwtGC
                0x000000007f06a94c                get_times_killed_mwtgx
                0x000000007f06a95c                increment_num_deaths
                0x000000007f06aa08                get_curplayer_numdeaths
                0x000000007f06aa18                increment_num_suicides_display_MP
                0x000000007f06aba0                get_curplayer_numsuicides
                0x000000007f06abb0                sub_GAME_7F06ABB0
                0x000000007f06afe8                display_image_at_on_screen_coord
 build/game/objecthandler.o(.text)
 .text          0x000000007f06b120     0x1580 build/game/objecthandler.o
                0x000000007f06b120                sub_GAME_7F06B120
                0x000000007f06b248                sub_GAME_7F06B248
                0x000000007f06b29c                sub_GAME_7F06B29C
                0x000000007f06bb28                sub_GAME_7F06BB28
                0x000000007f06bc0c                drawjointlist
                0x000000007f06be00                probably_damage_detail_blood_effect_related
                0x000000007f06c010                sub_GAME_7F06C010
                0x000000007f06c060                sub_GAME_7F06C060
                0x000000007f06c094                get_obj_instance_controller_for_header
                0x000000007f06c234                set_obj_instance_scale_to_zero
                0x000000007f06c23c                get_aircraft_obj_instance_controller
                0x000000007f06c3b4                sub_GAME_7F06C3B4
                0x000000007f06c3f8                set_aircraft_obj_inst_scale_to_zero
                0x000000007f06c400                set_80036084
                0x000000007f06c40c                set_float_80036088
                0x000000007f06c418                sub_GAME_7F06C418
                0x000000007f06c460                set_8003608C
                0x000000007f06c46c                return_null
                0x000000007f06c474                sub_GAME_7F06C474
                0x000000007f06c550                sub_GAME_7F06C550
                0x000000007f06c570                sub_GAME_7F06C570
                0x000000007f06c660                sub_GAME_7F06C660
 build/game/objecthandler_2.o(.text)
 .text          0x000000007f06c6a0     0x9f00 build/game/objecthandler_2.o
                0x000000007f06c6a0                getsubmatrix
                0x000000007f06c710                sub_GAME_7F06C710
                0x000000007f06c768                sub_GAME_7F06C768
                0x000000007f06c79c                extract_id_from_object_structure_microcode
                0x000000007f06c898                getpartoffset
                0x000000007f06c9d0                setpartoffset
                0x000000007f06cb98                getsuboffset
                0x000000007f06cc0c                setsuboffset
                0x000000007f06cc80                getsubroty
                0x000000007f06cd3c                setsubroty
                0x000000007f06ce78                set_obj_instance_controller_scale
                0x000000007f06ce84                sub_GAME_7F06CE84
                0x000000007f06ce90                getjointsize
                0x000000007f06d00c                getinstsize
                0x000000007f06d07c                sub_GAME_7F06D07C
                0x000000007f06d0cc                sub_GAME_7F06D0CC
                0x000000007f06d160                sub_GAME_7F06D160
                0x000000007f06d1cc                sub_GAME_7F06D1CC
                0x000000007f06d2e4                sub_GAME_7F06D2E4
                0x000000007f06d3f4                sub_GAME_7F06D3F4
                0x000000007f06d490                sub_GAME_7F06D490
                0x000000007f06d6b0                subcalcpos
                0x000000007f06d738                process_01_group_heading
                0x000000007f06d8b0                sub_GAME_7F06D8B0
                0x000000007f06db5c                sub_GAME_7F06DB5C
                0x000000007f06de04                sub_GAME_7F06DE04
                0x000000007f06dec0                sub_GAME_7F06DEC0
                0x000000007f06e0a0                process_02_position
                0x000000007f06e2b8                sub_GAME_7F06E2B8
                0x000000007f06e540                sub_GAME_7F06E540
                0x000000007f06e64c                process_03_unknown
                0x000000007f06e7a8                process_15_subposition
                0x000000007f06e858                process_08_distance_triggers
                0x000000007f06e970                sub_GAME_7F06E970
                0x000000007f06e9bc                process_12_handle_switch
                0x000000007f06ea08                process_17_pointer_to_head
                0x000000007f06ea54                sub_GAME_7F06EA54
                0x000000007f06eb10                sub_GAME_7F06EB10
                0x000000007f06eb3c                process_09_head_hat_placement_interlink
                0x000000007f06ecf8                process_07_unknown
                0x000000007f06eea4                sub_GAME_7F06EEA4
                0x000000007f06efc4                sub_GAME_7F06EFC4
                0x000000007f06f0d0                sub_GAME_7F06F0D0
                0x000000007f06f248                instcalcmatrices
                0x000000007f06f2f8                subcalcmatrices
                0x000000007f06f5ac                sub_GAME_7F06F5AC
                0x000000007f06f5b4                sub_GAME_7F06F5B4
                0x000000007f06f5bc                sub_GAME_7F06F5BC
                0x000000007f06f5c4                sub_GAME_7F06F5C4
                0x000000007f06f610                sub_GAME_7F06F610
                0x000000007f06f618                sub_GAME_7F06F618
                0x000000007f06f640                sub_GAME_7F06F640
                0x000000007f06f66c                sub_GAME_7F06F66C
                0x000000007f06f780                sub_GAME_7F06F780
                0x000000007f06f878                sub_GAME_7F06F878
                0x000000007f06fc4c                sub_GAME_7F06FC4C
                0x000000007f06fca8                sub_GAME_7F06FCA8
                0x000000007f06fcfc                sub_GAME_7F06FCFC
                0x000000007f06fdcc                sub_GAME_7F06FDCC
                0x000000007f06fde8                sub_GAME_7F06FDE8
                0x000000007f06fe3c                sub_GAME_7F06FE3C
                0x000000007f06fe44                sub_GAME_7F06FE44
                0x000000007f06fe4c                sub_GAME_7F06FE4C
                0x000000007f06fe90                sub_GAME_7F06FE90
                0x000000007f06ff18                sub_GAME_7F06FF18
                0x000000007f06ff5c                sub_GAME_7F06FF5C
                0x000000007f06ff64                sub_GAME_7F06FF64
                0x000000007f070090                sub_GAME_7F070090
                0x000000007f0701d4                sub_GAME_7F0701D4
                0x000000007f0701e0                sub_GAME_7F0701E0
                0x000000007f0701ec                sub_GAME_7F0701EC
                0x000000007f070aec                sub_GAME_7F070AEC
                0x000000007f070f80                sub_GAME_7F070F80
                0x000000007f071030                sub_GAME_7F071030
                0x000000007f071b44                sub_GAME_7F071B44
                0x000000007f072644                sub_GAME_7F072644
                0x000000007f0726f8                sub_GAME_7F0726F8
                0x000000007f072784                sub_GAME_7F072784
                0x000000007f072984                sub_GAME_7F072984
                0x000000007f072c10                sub_GAME_7F072C10
                0x000000007f072c20                dorottex
                0x000000007f073038                sub_GAME_7F073038
                0x000000007f07306c                sub_GAME_7F07306C
                0x000000007f07307c                dotube
                0x000000007f0737ec                sub_GAME_7F0737EC
                0x000000007f0737fc                sub_GAME_7F0737FC
                0x000000007f07380c                dogfnegx
                0x000000007f073fc8                sub_GAME_7F073FC8
                0x000000007f073fd4                doshadow
                0x000000007f074514                sub_GAME_7F074514
                0x000000007f074524                sub_GAME_7F074524
                0x000000007f074534                sub_GAME_7F074534
                0x000000007f074684                subdraw
                0x000000007f074790                sub_GAME_7F074790
                0x000000007f0747d0                sub_GAME_7F0747D0
                0x000000007f074c68                sub_GAME_7F074C68
                0x000000007f074cac                sub_GAME_7F074CAC
                0x000000007f0752fc                sub_GAME_7F0752FC
                0x000000007f07549c                sub_GAME_7F07549C
                0x000000007f0754bc                sub_GAME_7F0754BC
                0x000000007f0755b0                sub_GAME_7F0755B0
                0x000000007f0755dc                convert_obj_microcode_offset_to_rdram_addr
                0x000000007f075a90                sub_GAME_7F075A90
                0x000000007f075b08                sub_GAME_7F075B08
                0x000000007f075b1c                set_microcode_entry_numbers
                0x000000007f075cf4                set_objuse_flag_compute_grp_nums_set_obj_loaded
                0x000000007f075d2c                unknown_object_microcode_handler
                0x000000007f075f68                sub_GAME_7F075F68
                0x000000007f075fac                sub_GAME_7F075FAC
                0x000000007f076030                sub_GAME_7F076030
                0x000000007f0760c4                sub_GAME_7F0760C4
                0x000000007f07623c                sub_GAME_7F07623C
                0x000000007f0762e0                sub_GAME_7F0762E0
                0x000000007f0764a4                load_object_fill_header
                0x000000007f07654c                load_object_into_memory
                0x000000007f076574                load_object_into_memory_unused_maybe
 build/game/othermodemicrocode.o(.text)
 .text          0x000000007f0765a0     0x1630 build/game/othermodemicrocode.o
                0x000000007f0765a0                is_less_than_certain_power_of_2
                0x000000007f076648                ceil8000
                0x000000007f0766ac                ceil4000
                0x000000007f076710                ceil2000
                0x000000007f076774                ceil1000
                0x000000007f0767d8                sub_GAME_7F0767D8
                0x000000007f076848                sub_GAME_7F076848
                0x000000007f0768b8                sub_GAME_7F0768B8
                0x000000007f076928                sub_GAME_7F076928
                0x000000007f076998                generate_microcode_for_othermode_setting
                0x000000007f076d68                likely_generate_DL_for_image_declaration
                0x000000007f077bb8                sub_GAME_7F077BB8
 build/game/bond.o(.text)
 .text          0x000000007f077bd0    0x15fe0 build/game/bond.o
                0x000000007f077bd0                nullsub_75
                0x000000007f077bd8                set_BONDdata_screensize
                0x000000007f077c14                sub_GAME_7F077C14
                0x000000007f077c30                sub_GAME_7F077C30
                0x000000007f077c5c                sub_GAME_7F077C5C
                0x000000007f077eec                sub_GAME_7F077EEC
                0x000000007f077fb4                sub_GAME_7F077FB4
                0x000000007f077ff4                sub_GAME_7F077FF4
                0x000000007f078060                sub_GAME_7F078060
                0x000000007f0780f0                sub_GAME_7F0780F0
                0x000000007f078140                sub_GAME_7F078140
                0x000000007f078258                sub_GAME_7F078258
                0x000000007f078324                set_BONDdata_field_10C4
                0x000000007f078334                get_BONDdata_field_10C4
                0x000000007f078344                set_BONDdata_field_10C8
                0x000000007f078354                get_BONDdata_field_10C8
                0x000000007f078364                set_BONDdata_field_10D8
                0x000000007f078374                get_BONDdata_field_10D8
                0x000000007f078384                set_BONDdata_field_10E0
                0x000000007f078394                get_BONDdata_field_10E0
                0x000000007f0783a4                copy_BONDdata_field_10CC_to_10E8_set_10CC
                0x000000007f0783c4                get_BONDdata_field_10CC
                0x000000007f0783d4                set_BONDdata_field_10DC
                0x000000007f0783e4                get_BONDdata_field_10DC
                0x000000007f0783f4                sub_GAME_7F0783F4
                0x000000007f078404                sub_GAME_7F078404
                0x000000007f078414                sub_GAME_7F078414
                0x000000007f078424                sub_GAME_7F078424
                0x000000007f078444                sub_GAME_7F078444
                0x000000007f078454                sub_GAME_7F078454
                0x000000007f078464                sub_GAME_7F078464
                0x000000007f078474                sub_GAME_7F078474
                0x000000007f078484                sub_GAME_7F078484
                0x000000007f078494                sub_GAME_7F078494
                0x000000007f0784a4                sub_GAME_7F0784A4
                0x000000007f0784b4                sub_GAME_7F0784B4
                0x000000007f0784c4                sub_GAME_7F0784C4
                0x000000007f0784d4                sub_GAME_7F0784D4
                0x000000007f0784e4                sub_GAME_7F0784E4
                0x000000007f0784f4                sub_GAME_7F0784F4
                0x000000007f078504                sub_GAME_7F078504
                0x000000007f078534                sub_GAME_7F078534
                0x000000007f078568                sub_GAME_7F078568
                0x000000007f078598                sub_GAME_7F078598
                0x000000007f0785cc                sub_GAME_7F0785CC
                0x000000007f0785dc                sub_GAME_7F0785DC
                0x000000007f078950                sub_GAME_7F078950
                0x000000007f078980                sub_GAME_7F078980
                0x000000007f0789b0                sub_GAME_7F0789B0
                0x000000007f0789e0                sub_GAME_7F0789E0
                0x000000007f078a10                sub_GAME_7F078A10
                0x000000007f078a58                sub_GAME_7F078A58
                0x000000007f078bf4                sub_GAME_7F078BF4
                0x000000007f0790f0                sub_GAME_7F0790F0
                0x000000007f0793ec                init_player_BONDdata
                0x000000007f0798b8                sub_GAME_7F0798B8
                0x000000007f079988                sub_GAME_7F079988
                0x000000007f0799ac                change_crouch_position
                0x000000007f0799f0                sub_GAME_7F0799F0
                0x000000007f079a1c                sub_GAME_7F079A1C
                0x000000007f079a50                setptrBONDdata
                0x000000007f079a60                sub_GAME_7F079A60
                0x000000007f079cf0                solo_char_load
                0x000000007f07a4a0                maybe_solo_intro_camera_handler
                0x000000007f07a528                get_camera_mode
                0x000000007f07a534                sub_GAME_7F07A534
                0x000000007f07a9b8                set_camera_mode
                0x000000007f07b1a4                sub_GAME_7F07B1A4
                0x000000007f07b2a0                sub_GAME_7F07B2A0
                0x000000007f07b56c                sub_GAME_7F07B56C
                0x000000007f07c540                sub_GAME_7F07C540
                0x000000007f07c550                set_BONDdata_lookahead_setting
                0x000000007f07c560                get_BONDdata_lookahead_setting
                0x000000007f07c570                set_BONDdata_autoaim_y
                0x000000007f07c580                get_BONDdata_autoaim_y
                0x000000007f07c5c0                redirect_get_BONDdata_autoaim_y
                0x000000007f07c5e0                get_BONDdata_is_aiming
                0x000000007f07c5f0                sub_GAME_7F07C5F0
                0x000000007f07c658                set_BONDdata_autoaim_x
                0x000000007f07c668                get_BONDdata_autoaim_x
                0x000000007f07c6a8                redirect_get_BONDdata_autoaim_x
                0x000000007f07c6c8                sub_GAME_7F07C6C8
                0x000000007f07c730                change_player_pos_to_target
                0x000000007f07c7b4                sub_GAME_7F07C7B4
                0x000000007f07c888                sub_GAME_7F07C888
                0x000000007f07ca2c                sub_GAME_7F07CA2C
                0x000000007f07cac8                sub_GAME_7F07CAC8
                0x000000007f07cda8                sub_GAME_7F07CDA8
                0x000000007f07cdd4                sub_GAME_7F07CDD4
                0x000000007f07ce78                get_intank_flag
                0x000000007f07ce84                get_ptr_for_players_tank
                0x000000007f07ceb0                sub_GAME_7F07CEB0
                0x000000007f07cf80                sub_GAME_7F07CF80
                0x000000007f07cf8c                cal_player_collision
                0x000000007f07d234                sub_GAME_7F07D234
                0x000000007f07d2b4                sub_GAME_7F07D2B4
                0x000000007f07d4c0                sub_GAME_7F07D4C0
                0x000000007f07d61c                sub_GAME_7F07D61C
                0x000000007f07d954                sub_GAME_7F07D954
                0x000000007f07d960                sub_GAME_7F07D960
                0x000000007f07de64                sub_GAME_7F07DE64
                0x000000007f07de9c                sub_GAME_7F07DE9C
                0x000000007f07defc                sub_GAME_7F07DEFC
                0x000000007f07df28                sub_GAME_7F07DF28
                0x000000007f07e010                sub_GAME_7F07E010
                0x000000007f07e03c                sub_GAME_7F07E03C
                0x000000007f07e068                sub_GAME_7F07E068
                0x000000007f07e090                sub_GAME_7F07E090
                0x000000007f07e388                sub_GAME_7F07E388
                0x000000007f07e400                trigger_watch_zoom
                0x000000007f07e438                sub_GAME_7F07E438
                0x000000007f07e46c                sub_GAME_7F07E46C
                0x000000007f07e504                sub_GAME_7F07E504
                0x000000007f07e52c                zoom_to_watch_on_open
                0x000000007f07e594                zoom_from_watch_on_exit
                0x000000007f07e5fc                check_watch_page_transistion_running
                0x000000007f07e62c                sub_GAME_7F07E62C
                0x000000007f07e740                sub_GAME_7F07E740
                0x000000007f07e7cc                sub_GAME_7F07E7CC
                0x000000007f07e8b0                sub_GAME_7F07E8B0
                0x000000007f07e910                sub_GAME_7F07E910
                0x000000007f07e964                sub_GAME_7F07E964
                0x000000007f07ea78                sub_GAME_7F07EA78
                0x000000007f07ead0                set_BONDdata_paused_flag
                0x000000007f07eae0                get_BONDdata_paused_flag
                0x000000007f07eaf0                sub_GAME_7F07EAF0
                0x000000007f07ec54                sub_GAME_7F07EC54
                0x000000007f07f860                setptrBONDdataUnk1D0to1
                0x000000007f07f874                trigger_solo_watch_menu
                0x000000007f07fcc4                sub_GAME_7F07FCC4
                0x000000007f07fe1c                sub_GAME_7F07FE1C
                0x000000007f07ff74                sub_GAME_7F07FF74
                0x000000007f080010                sub_GAME_7F080010
                0x000000007f080228                sub_GAME_7F080228
                0x000000007f0802c4                sub_GAME_7F0802C4
                0x000000007f0804e0                sub_GAME_7F0804E0
                0x000000007f0807b0                sub_GAME_7F0807B0
                0x000000007f0807e0                sub_GAME_7F0807E0
                0x000000007f080858                fade_to_over_seconds
                0x000000007f08088c                check_if_fade_to_black_complete
                0x000000007f0808bc                sub_GAME_7F0808BC
                0x000000007f080a10                set_curplayer_fade
                0x000000007f080a80                update_curplayer_fade
                0x000000007f080b34                sub_GAME_7F080B34
                0x000000007f080d60                sub_GAME_7F080D60
                0x000000007f080df8                sub_GAME_7F080DF8
                0x000000007f081478                sub_GAME_7F081478
                0x000000007f081790                sub_GAME_7F081790
                0x000000007f081974                controller_gameplay_interaction
                0x000000007f083fc8                sub_GAME_7F083FC8
                0x000000007f084360                sub_GAME_7F084360
                0x000000007f084648                MoveBond
                0x000000007f086990                sub_GAME_7F086990
                0x000000007f086bf8                getWidth320or440
                0x000000007f086c1c                getHeight330or240
                0x000000007f086c40                get_curplayer_viewport_width
                0x000000007f086cc4                get_curplayer_viewport_ulx
                0x000000007f086d24                get_curplayer_viewport_height
                0x000000007f086e38                get_curplayer_viewport_uly
                0x000000007f086f9c                possibly_reset_viewport_options_for_player
                0x000000007f0875e4                sub_GAME_7F0875E4
                0x000000007f087664                store_BONDdata_curpos_to_previous
                0x000000007f0876c4                sub_GAME_7F0876C4
                0x000000007f087a08                sub_GAME_7F087A08
                0x000000007f087c14                seems_to_load_cuff_microcode
                0x000000007f087e74                sub_GAME_7F087E74
                0x000000007f088618                sub_GAME_7F088618
                0x000000007f0888e8                mp_respawn_handler
                0x000000007f088cd8                sub_GAME_7F088CD8
                0x000000007f089208                maybe_mp_interface
                0x000000007f0896c0                write_stan_tiles_in_yellow
                0x000000007f089718                sub_GAME_7F089718
                0x000000007f08976c                sub_GAME_7F08976C
                0x000000007f089778                sub_GAME_7F089778
                0x000000007f089780                sub_GAME_7F089780
                0x000000007f089798                get_curplayer_positiondata
                0x000000007f0897a8                kill_current_player
                0x000000007f0898e8                sub_GAME_7F0898E8
                0x000000007f08991c                record_damage_kills
                0x000000007f089e4c                sub_GAME_7F089E4C
                0x000000007f089ea4                check_if_bond_is_invincible
                0x000000007f089ebc                check_if_healthbar_timer_greater_than_0
                0x000000007f089ed4                get_BONDdata_field19C
                0x000000007f089ee4                get_curplay_horizontal_rotation_in_degrees
                0x000000007f089f10                get_curplay_vertical_rotation_in_degrees
                0x000000007f089f38                sub_GAME_7F089F38
                0x000000007f089f48                set_bondata_invincible_flag
                0x000000007f089f58                get_bondata_invincible_flag
                0x000000007f089f68                set_invisible_to_guards_flag
                0x000000007f089f74                get_invisible_to_guards_flag
                0x000000007f089f80                set_obj_collision_flag
                0x000000007f089f8c                get_obj_collision_flag
                0x000000007f089f98                get_cur_players_room
                0x000000007f089fd4                get_BONDdata_position
                0x000000007f08a000                get_BONDdata_position3
                0x000000007f08a02c                get_BONDdata_field408
                0x000000007f08a03c                sub_GAME_7F08A03C
                0x000000007f08a0b0                sub_GAME_7F08A0B0
                0x000000007f08a19c                sub_GAME_7F08A19C
                0x000000007f08a274                sub_GAME_7F08A274
                0x000000007f08a2ec                get_BONDdata_watch_health
                0x000000007f08a2fc                get_BONDdata_watch_armor
                0x000000007f08a30c                add_BONDdata_watch_armor
                0x000000007f08a330                reset_intro_camera_message_dialogs_for_BONDdata
                0x000000007f08a380                unset_flags_in_BONDdata_stationary_intro_cam
                0x000000007f08a39c                set_flags_in_BONDdata_stationary_intro_cam
                0x000000007f08a3b4                sub_GAME_7F08A3B4
                0x000000007f08a3c8                display_string_in_lower_left_corner
                0x000000007f08a4e4                sub_GAME_7F08A4E4
                0x000000007f08a5fc                sub_GAME_7F08A5FC
                0x000000007f08a900                sub_GAME_7F08A900
                0x000000007f08a928                sub_GAME_7F08A928
                0x000000007f08a944                sub_GAME_7F08A944
                0x000000007f08a95c                display_string_at_top_of_screen
                0x000000007f08a9f8                sub_GAME_7F08A9F8
                0x000000007f08aae8                sub_GAME_7F08AAE8
                0x000000007f08b0f0                sub_GAME_7F08B0F0
                0x000000007f08bcb8                sub_GAME_7F08BCB8
                0x000000007f08bcc0                sub_GAME_7F08BCC0
                0x000000007f08bcf4                sub_GAME_7F08BCF4
                0x000000007f08bd18                sub_GAME_7F08BD18
                0x000000007f08bd48                sub_GAME_7F08BD48
                0x000000007f08bdc4                sub_GAME_7F08BDC4
                0x000000007f08be2c                sub_GAME_7F08BE2C
                0x000000007f08beec                sub_GAME_7F08BEEC
                0x000000007f08bfb8                sub_GAME_7F08BFB8
                0x000000007f08bfc4                trigger_explosions_around_player
                0x000000007f08bff0                reinit_BONDdata_inventory
                0x000000007f08c054                sub_GAME_7F08C054
                0x000000007f08c194                add_additional_weapon_slot_to_player_inventory_guess
                0x000000007f08c1fc                reorder_inventory_ptrs_based_on_id_code
                0x000000007f08c244                get_ptr_next_available_weapon
                0x000000007f08c29c                set_BONDdata_allguns_flag
                0x000000007f08c2ac                get_BONDdata_allguns_flag
                0x000000007f08c2bc                get_ptr_inventory_item
                0x000000007f08c314                is_weapon_in_inv
                0x000000007f08c338                get_ptr_inventory_for_item_in_hand
                0x000000007f08c39c                is_item_for_hand_in_inventory
                0x000000007f08c3c0                check_if_item_available
                0x000000007f08c40c                check_if_item_for_hand_available
                0x000000007f08c488                add_item_to_inventory
                0x000000007f08c50c                add_doubles_item_to_inventory
                0x000000007f08c570                sub_GAME_7F08C570
                0x000000007f08c61c                sub_GAME_7F08C61C
                0x000000007f08c724                sub_GAME_7F08C724
                0x000000007f08c764                sub_GAME_7F08C764
                0x000000007f08c86c                sub_GAME_7F08C86C
                0x000000007f08cb10                sub_GAME_7F08CB10
                0x000000007f08ce70                sub_GAME_7F08CE70
                0x000000007f08cf0c                sub_GAME_7F08CF0C
                0x000000007f08cf80                sub_GAME_7F08CF80
                0x000000007f08cfc0                sub_GAME_7F08CFC0
                0x000000007f08cfe0                sub_GAME_7F08CFE0
                0x000000007f08d038                sub_GAME_7F08D038
                0x000000007f08d108                sub_GAME_7F08D108
                0x000000007f08d21c                sub_GAME_7F08D21C
                0x000000007f08d25c                sub_GAME_7F08D25C
                0x000000007f08d2a8                sub_GAME_7F08D2A8
                0x000000007f08d340                sub_GAME_7F08D340
                0x000000007f08d434                sub_GAME_7F08D434
                0x000000007f08d528                sub_GAME_7F08D528
                0x000000007f08d550                sub_GAME_7F08D550
                0x000000007f08d578                sub_GAME_7F08D578
                0x000000007f08d5a0                sub_GAME_7F08D5A0
                0x000000007f08d5c8                sub_GAME_7F08D5C8
                0x000000007f08d6bc                sub_GAME_7F08D6BC
                0x000000007f08d7b0                sub_GAME_7F08D7B0
                0x000000007f08d7d8                sub_GAME_7F08D7D8
                0x000000007f08d800                sub_GAME_7F08D800
                0x000000007f08d828                sub_GAME_7F08D828
                0x000000007f08d850                sub_GAME_7F08D850
                0x000000007f08d878                sub_GAME_7F08D878
                0x000000007f08d8a0                sub_GAME_7F08D8A0
                0x000000007f08d8c0                sub_GAME_7F08D8C0
                0x000000007f08d8d0                sub_GAME_7F08D8D0
                0x000000007f08d8e0                sub_GAME_7F08D8E0
                0x000000007f08d95c                sub_GAME_7F08D95C
                0x000000007f08d9a4                sub_GAME_7F08D9A4
                0x000000007f08d9ec                sub_GAME_7F08D9EC
                0x000000007f08db08                sub_GAME_7F08DB08
 build/game/unk_08DBB0.o(.text)
 .text          0x000000007f08dbb0     0x2250 build/game/unk_08DBB0.o
                0x000000007f08dbb0                sub_GAME_7F08DBB0
                0x000000007f08dbc8                sub_GAME_7F08DBC8
                0x000000007f08de48                sub_GAME_7F08DE48
                0x000000007f08df44                sub_GAME_7F08DF44
                0x000000007f08e164                sub_GAME_7F08E164
                0x000000007f08e240                sub_GAME_7F08E240
                0x000000007f08e8bc                sub_GAME_7F08E8BC
                0x000000007f08ea48                sub_GAME_7F08EA48
                0x000000007f08eab8                sub_GAME_7F08EAB8
                0x000000007f08eaf8                sub_GAME_7F08EAF8
                0x000000007f08ebd0                sub_GAME_7F08EBD0
                0x000000007f08ec8c                sub_GAME_7F08EC8C
                0x000000007f08ed60                sub_GAME_7F08ED60
                0x000000007f08edb4                sub_GAME_7F08EDB4
                0x000000007f08ee00                sub_GAME_7F08EE00
                0x000000007f08ee70                sub_GAME_7F08EE70
                0x000000007f08ef1c                sub_GAME_7F08EF1C
                0x000000007f08efa0                sub_GAME_7F08EFA0
                0x000000007f08f090                sub_GAME_7F08F090
                0x000000007f08f0e8                sub_GAME_7F08F0E8
                0x000000007f08f138                sub_GAME_7F08F138
                0x000000007f08f1d8                sub_GAME_7F08F1D8
                0x000000007f08f2cc                sub_GAME_7F08F2CC
                0x000000007f08f350                sub_GAME_7F08F350
                0x000000007f08f438                sub_GAME_7F08F438
                0x000000007f08f4f0                sub_GAME_7F08F4F0
                0x000000007f08f67c                sub_GAME_7F08F67C
                0x000000007f08f6b0                sub_GAME_7F08F6B0
                0x000000007f08f908                sub_GAME_7F08F908
                0x000000007f08fb90                sub_GAME_7F08FB90
                0x000000007f08fd1c                sub_GAME_7F08FD1C
 build/game/debugmenu_08FE00.o(.text)
 .text          0x000000007f08fe00      0x690 build/game/debugmenu_08FE00.o
                0x000000007f08fe00                nullsub_32
                0x000000007f08fe08                sub_GAME_7F08FE08
                0x000000007f08fe14                init_debug_menu_values
                0x000000007f08fe74                print_debug_mcm_to_stdout
                0x000000007f09000c                sub_GAME_7F09000C
                0x000000007f0901b0                get_highlighted_debug_option
                0x000000007f0901bc                sub_GAME_7F0901BC
                0x000000007f0901c8                sub_GAME_7F0901C8
                0x000000007f090248                sub_GAME_7F090248
                0x000000007f0902c0                sub_GAME_7F0902C0
                0x000000007f09039c                sub_GAME_7F09039C
 build/game/debugmenu_090490.o(.text)
 .text          0x000000007f090490      0xbf0 build/game/debugmenu_090490.o
                0x000000007f0904c4                sub_GAME_7F0904C4
                0x000000007f090508                sub_GAME_7F090508
                0x000000007f09054c                sub_GAME_7F09054C
                0x000000007f090590                unknown_libname_68
                0x000000007f090598                nullsub_35
                0x000000007f090efc                get_debug_render_raster
                0x000000007f090f08                get_debug_freeze_processing
                0x000000007f090f14                get_debug_limit_controller_input
                0x000000007f090f20                set_debug_limit_controller_input
                0x000000007f090f40                get_debug_do_draw_bg
                0x000000007f090f4c                get_debug_do_draw_obj
                0x000000007f090f58                get_debug_stanhit_flag
                0x000000007f090f64                get_debug_stanregion_flag
                0x000000007f090f70                get_turbo_mode_flag
                0x000000007f090f7c                get_debug_man_pos_flag
                0x000000007f090f88                get_debug_testingmanpos_flag
                0x000000007f090f94                set_debug_testingmanpos_flag
                0x000000007f090fa0                get_debug_joy2skyedit_flag
                0x000000007f090fac                get_debug_joy2hitsedit_flag
                0x000000007f090fb8                get_debug_joy2detailedit_flag
                0x000000007f090fc4                get_debug_explosioninfo_flag
                0x000000007f090fd0                get_debug_prroomloads_flag
                0x000000007f090fe8                set_linemode_flag
                0x000000007f090ff4                get_debug_007_unlock_flag
                0x000000007f091000                get_debug_enable_agent_levels_flag
                0x000000007f09100c                get_debug_enable_all_levels_flag
                0x000000007f091018                get_debug_fast_bond_flag
                0x000000007f091024                set_debug_fast_bond_flag
                0x000000007f091030                get_debug_all_obj_complete_flag
                0x000000007f09103c                get_debug_portal_flag
                0x000000007f091048                get_debug_chrnum_flag
                0x000000007f091054                get_debug_gunwatchpos_flag
                0x000000007f091060                get_debug_profile_flag
 build/game/unk_091080.o(.text)
 .text          0x000000007f091080      0x6c0 build/game/unk_091080.o
                0x000000007f091080                sub_GAME_7F091080
                0x000000007f091580                sub_GAME_7F091580
                0x000000007f0915bc                sub_GAME_7F0915BC
                0x000000007f091618                sub_GAME_7F091618
                0x000000007f09166c                sub_GAME_7F09166C
                0x000000007f0916f4                sub_GAME_7F0916F4
 build/game/cheat_buttons_objectrelated.o(.text)
 .text          0x000000007f091740     0x1150 build/game/cheat_buttons_objectrelated.o
                0x000000007f091740                sub_GAME_7F091740
                0x000000007f09177c                sub_GAME_7F09177C
                0x000000007f09193c                sub_GAME_7F09193C
                0x000000007f091a5c                sub_GAME_7F091A5C
                0x000000007f091a78                sub_GAME_7F091A78
                0x000000007f091aac                sub_GAME_7F091AAC
                0x000000007f091b64                sub_GAME_7F091B64
                0x000000007f092438                sub_GAME_7F092438
                0x000000007f0926c0                sub_GAME_7F0926C0
                0x000000007f092774                sub_GAME_7F092774
                0x000000007f0927bc                sub_GAME_7F0927BC
                0x000000007f0927f4                sub_GAME_7F0927F4
 build/game/unk_092890.o(.text)
 .text          0x000000007f092890      0x5c0 build/game/unk_092890.o
                0x000000007f092890                sub_GAME_7F092890
 build/game/unk_092E50.o(.text)
 .text          0x000000007f092e50      0xa30 build/game/unk_092E50.o
                0x000000007f092e50                sub_GAME_7F092E50
                0x000000007f09343c                sub_GAME_7F09343C
                0x000000007f09365c                sub_GAME_7F09365C
 build/game/unk_093880.o(.text)
 .text          0x000000007f093880     0x7d80 build/game/unk_093880.o
                0x000000007f093880                sub_GAME_7F093880
                0x000000007f0938fc                sub_GAME_7F0938FC
                0x000000007f093a78                sub_GAME_7F093A78
                0x000000007f093bfc                sub_GAME_7F093BFC
                0x000000007f093c48                sub_GAME_7F093C48
                0x000000007f093c88                sub_GAME_7F093C88
                0x000000007f093cb0                sub_GAME_7F093CB0
                0x000000007f093fa4                sub_GAME_7F093FA4
                0x000000007f094298                sub_GAME_7F094298
                0x000000007f09442c                sub_GAME_7F09442C
                0x000000007f094438                sub_GAME_7F094438
                0x000000007f094488                sub_GAME_7F094488
                0x000000007f097388                sub_GAME_7F097388
                0x000000007f0977b4                sub_GAME_7F0977B4
                0x000000007f097818                sub_GAME_7F097818
                0x000000007f098a2c                sub_GAME_7F098A2C
                0x000000007f09a2e0                default_player_perspective_and_height
                0x000000007f09a32c                reset_play_data_ptrs
                0x000000007f09a38c                init_player_data_ptrs_construct_viewports
                0x000000007f09a464                get_num_players
                0x000000007f09a4bc                initBONDdataforPlayer
                0x000000007f09b10c                set_cur_player
                0x000000007f09b150                get_cur_playernum
                0x000000007f09b15c                sub_GAME_7F09B15C
                0x000000007f09b1dc                set_cur_player_screen_size
                0x000000007f09b1f8                set_cur_player_viewport_size
                0x000000007f09b214                sub_GAME_7F09B214
                0x000000007f09b224                sub_GAME_7F09B224
                0x000000007f09b234                sub_GAME_7F09B234
                0x000000007f09b244                sub_GAME_7F09B244
                0x000000007f09b368                sub_GAME_7F09B368
                0x000000007f09b398                sub_GAME_7F09B398
                0x000000007f09b41c                sub_GAME_7F09B41C
                0x000000007f09b4d8                sub_GAME_7F09B4D8
                0x000000007f09b528                sub_GAME_7F09B528
 build/game/unk_09B600.o(.text)
 .text          0x000000007f09b600      0x140 build/game/unk_09B600.o
                0x000000007f09b600                sub_GAME_7F09B600
 build/game/unk_09B740.o(.text)
 .text          0x000000007f09b740       0x60 build/game/unk_09B740.o
                0x000000007f09b740                sub_GAME_7F09B740
                0x000000007f09b788                sub_GAME_7F09B788
 build/game/unk_09B7A0.o(.text)
 .text          0x000000007f09b7a0      0xab0 build/game/unk_09B7A0.o
                0x000000007f09b7a0                null_init_main_1
                0x000000007f09b7a8                sub_GAME_7F09B7A8
                0x000000007f09b7e4                sub_GAME_7F09B7E4
                0x000000007f09b820                sub_GAME_7F09B820
                0x000000007f09bac4                sub_GAME_7F09BAC4
                0x000000007f09bbbc                sub_GAME_7F09BBBC
                0x000000007f09be4c                sub_GAME_7F09BE4C
                0x000000007f09c044                sub_GAME_7F09C044
 build/game/unk_09C250.o(.text)
 .text          0x000000007f09c250     0x5b50 build/game/unk_09C250.o
                0x000000007f09c250                sub_GAME_7F09C250
                0x000000007f09c7ac                sub_GAME_7F09C7AC
                0x000000007f09c7c4                sub_GAME_7F09C7C4
                0x000000007f09c9d8                sub_GAME_7F09C9D8
                0x000000007f09cee8                sub_GAME_7F09CEE8
                0x000000007f09d4ec                sub_GAME_7F09D4EC
                0x000000007f09d5a0                sub_GAME_7F09D5A0
                0x000000007f09d82c                sub_GAME_7F09D82C
                0x000000007f09dda4                sub_GAME_7F09DDA4
                0x000000007f09e700                sub_GAME_7F09E700
                0x000000007f09e8ac                sub_GAME_7F09E8AC
                0x000000007f09ef9c                sub_GAME_7F09EF9C
                0x000000007f09f03c                sub_GAME_7F09F03C
                0x000000007f09f254                sub_GAME_7F09F254
                0x000000007f09fd3c                sub_GAME_7F09FD3C
                0x000000007f0a0034                sub_GAME_7F0A0034
                0x000000007f0a027c                sub_GAME_7F0A027C
                0x000000007f0a0ab4                sub_GAME_7F0A0AB4
                0x000000007f0a0c74                sub_GAME_7F0A0C74
                0x000000007f0a0ccc                sub_GAME_7F0A0CCC
                0x000000007f0a0d90                sub_GAME_7F0A0D90
                0x000000007f0a0e98                sub_GAME_7F0A0E98
                0x000000007f0a108c                sub_GAME_7F0A108C
                0x000000007f0a1a94                sub_GAME_7F0A1A94
                0x000000007f0a1d78                sub_GAME_7F0A1D78
 build/game/unk_0A1DA0.o(.text)
 .text          0x000000007f0a1da0     0x2ac0 build/game/unk_0A1DA0.o
                0x000000007f0a1da0                sub_GAME_7F0A1DA0
                0x000000007f0a2160                sub_GAME_7F0A2160
                0x000000007f0a28d4                sub_GAME_7F0A28D4
                0x000000007f0a2c44                sub_GAME_7F0A2C44
                0x000000007f0a2f30                sub_GAME_7F0A2F30
                0x000000007f0a3330                sub_GAME_7F0A3330
                0x000000007f0a33f8                sub_GAME_7F0A33F8
                0x000000007f0a3978                sub_GAME_7F0A3978
                0x000000007f0a3ab8                sub_GAME_7F0A3AB8
                0x000000007f0a3b40                sub_GAME_7F0A3B40
                0x000000007f0a3b70                sub_GAME_7F0A3B70
                0x000000007f0a3ba4                sub_GAME_7F0A3BA4
                0x000000007f0a3bd8                sub_GAME_7F0A3BD8
                0x000000007f0a3c08                sub_GAME_7F0A3C08
                0x000000007f0a3e1c                sub_GAME_7F0A3E1C
                0x000000007f0a3ea0                sub_GAME_7F0A3EA0
                0x000000007f0a3f04                sub_GAME_7F0A3F04
                0x000000007f0a4528                sub_GAME_7F0A4528
                0x000000007f0a4594                sub_GAME_7F0A4594
                0x000000007f0a45d8                sub_GAME_7F0A45D8
                0x000000007f0a4600                sub_GAME_7F0A4600
                0x000000007f0a46a0                sub_GAME_7F0A46A0
                0x000000007f0a4768                sub_GAME_7F0A4768
                0x000000007f0a47d4                sub_GAME_7F0A47D4
                0x000000007f0a47fc                sub_GAME_7F0A47FC
                0x000000007f0a4824                sub_GAME_7F0A4824
 build/game/watch.o(.text)
 .text          0x000000007f0a4860     0x8310 build/game/watch.o
                0x000000007f0a4860                nullsub_46
                0x000000007f0a4868                init_watch_at_start_of_stage
                0x000000007f0a4a98                sub_GAME_7F0A4A98
                0x000000007f0a4b40                sub_GAME_7F0A4B40
                0x000000007f0a4d74                sub_GAME_7F0A4D74
                0x000000007f0a4dc0                cur_player_get_control_type
                0x000000007f0a4dd0                cur_player_set_control_type
                0x000000007f0a4e38                get_cur_player_look_vertical_inverted
                0x000000007f0a4e44                set_cur_player_look_vertical_inverted
                0x000000007f0a4e50                cur_player_get_autoaim
                0x000000007f0a4e5c                cur_player_set_autoaim
                0x000000007f0a4e68                cur_player_get_lookahead
                0x000000007f0a4e74                cur_player_set_lookahead
                0x000000007f0a4e80                cur_player_get_aim_control
                0x000000007f0a4e8c                cur_player_set_aim_control
                0x000000007f0a4e98                cur_player_get_sight_onscreen_control
                0x000000007f0a4ea4                cur_player_set_sight_onscreen_control
                0x000000007f0a4eb0                cur_player_get_ammo_onscreen_setting
                0x000000007f0a4ebc                cur_player_set_ammo_onscreen_setting
                0x000000007f0a4ec8                cur_player_get_screen_setting
                0x000000007f0a4ed4                cur_player_set_screen_setting
                0x000000007f0a4ee0                get_screen_ratio
                0x000000007f0a4eec                set_screen_ratio
                0x000000007f0a4ef8                sub_GAME_7F0A4EF8
                0x000000007f0a4f44                sub_GAME_7F0A4F44
                0x000000007f0a4f50                is_holding_greater_than_2E_left_on_stick
                0x000000007f0a4f74                is_holding_greater_than_2E_right_on_stick
                0x000000007f0a4f98                get_controlstick_lr_enabled
                0x000000007f0a4fa4                set_controlstick_lr_enabled
                0x000000007f0a4fb0                sub_GAME_7F0A4FB0
                0x000000007f0a4fec                sub_GAME_7F0A4FEC
                0x000000007f0a5028                sub_GAME_7F0A5028
                0x000000007f0a504c                sub_GAME_7F0A504C
                0x000000007f0a5070                sub_GAME_7F0A5070
                0x000000007f0a507c                sub_GAME_7F0A507C
                0x000000007f0a5088                sub_GAME_7F0A5088
                0x000000007f0a50c4                sub_GAME_7F0A50C4
                0x000000007f0a5100                sub_GAME_7F0A5100
                0x000000007f0a5124                sub_GAME_7F0A5124
                0x000000007f0a5148                sub_GAME_7F0A5148
                0x000000007f0a5154                sub_GAME_7F0A5154
                0x000000007f0a5160                sub_GAME_7F0A5160
                0x000000007f0a519c                sub_GAME_7F0A519C
                0x000000007f0a51d8                sub_GAME_7F0A51D8
                0x000000007f0a5210                sub_GAME_7F0A5210
                0x000000007f0a526c                sub_GAME_7F0A526C
                0x000000007f0a53d8                sub_GAME_7F0A53D8
                0x000000007f0a5504                sub_GAME_7F0A5504
                0x000000007f0a55c4                sub_GAME_7F0A55C4
                0x000000007f0a56a4                sub_GAME_7F0A56A4
                0x000000007f0a5784                sub_GAME_7F0A5784
                0x000000007f0a5860                sub_GAME_7F0A5860
                0x000000007f0a5900                sub_GAME_7F0A5900
                0x000000007f0a5998                sub_GAME_7F0A5998
                0x000000007f0a5a64                sub_GAME_7F0A5A64
                0x000000007f0a5af4                sub_GAME_7F0A5AF4
                0x000000007f0a5b80                sub_GAME_7F0A5B80
                0x000000007f0a611c                sub_GAME_7F0A611C
                0x000000007f0a6618                sub_GAME_7F0A6618
                0x000000007f0a66a0                sub_GAME_7F0A66A0
                0x000000007f0a672c                sub_GAME_7F0A672C
                0x000000007f0a67bc                sub_GAME_7F0A67BC
                0x000000007f0a684c                sub_GAME_7F0A684C
                0x000000007f0a68d8                sub_GAME_7F0A68D8
                0x000000007f0a69a8                sub_GAME_7F0A69A8
                0x000000007f0a6a2c                sub_GAME_7F0A6A2C
                0x000000007f0a6a80                sub_GAME_7F0A6A80
                0x000000007f0a6ee8                sub_GAME_7F0A6EE8
                0x000000007f0a70ac                sub_GAME_7F0A70AC
                0x000000007f0a714c                sub_GAME_7F0A714C
                0x000000007f0a77a8                sub_GAME_7F0A77A8
                0x000000007f0a77c8                sub_GAME_7F0A77C8
                0x000000007f0a7c18                sub_GAME_7F0A7C18
                0x000000007f0a7dbc                sub_GAME_7F0A7DBC
                0x000000007f0a7dc4                sub_GAME_7F0A7DC4
                0x000000007f0a7ea8                debug_gun_watch_move_related
                0x000000007f0a830c                sub_GAME_7F0A830C
                0x000000007f0a8424                debug_gun_watch_move_related2
                0x000000007f0a8b10                sub_GAME_7F0A8B10
                0x000000007f0a8d40                sub_GAME_7F0A8D40
                0x000000007f0a8ed0                sub_GAME_7F0A8ED0
                0x000000007f0a8fec                sub_GAME_7F0A8FEC
                0x000000007f0a9180                sub_GAME_7F0A9180
                0x000000007f0a91a0                sub_GAME_7F0A91A0
                0x000000007f0a91c8                sub_GAME_7F0A91C8
                0x000000007f0a9358                sub_GAME_7F0A9358
                0x000000007f0a9364                sub_GAME_7F0A9364
                0x000000007f0a9398                sub_GAME_7F0A9398
                0x000000007f0a95c4                sub_GAME_7F0A95C4
                0x000000007f0a9610                sub_GAME_7F0A9610
                0x000000007f0a9684                sub_GAME_7F0A9684
                0x000000007f0a97d0                sub_GAME_7F0A97D0
                0x000000007f0a9ab8                sub_GAME_7F0A9AB8
                0x000000007f0aa7c8                sub_GAME_7F0AA7C8
                0x000000007f0aadc0                sub_GAME_7F0AADC0
                0x000000007f0ab48c                sub_GAME_7F0AB48C
                0x000000007f0ab498                sub_GAME_7F0AB498
                0x000000007f0ab4a4                sub_GAME_7F0AB4A4
                0x000000007f0ab4b0                sub_GAME_7F0AB4B0
                0x000000007f0ab4b8                sub_GAME_7F0AB4B8
                0x000000007f0ab7a4                sub_GAME_7F0AB7A4
                0x000000007f0ab7d8                sub_GAME_7F0AB7D8
                0x000000007f0ab908                sub_GAME_7F0AB908
                0x000000007f0abc1c                sub_GAME_7F0ABC1C
                0x000000007f0abdfc                sub_GAME_7F0ABDFC
                0x000000007f0ac0e8                sub_GAME_7F0AC0E8
                0x000000007f0ac120                sub_GAME_7F0AC120
                0x000000007f0ac168                sub_GAME_7F0AC168
                0x000000007f0aca28                sub_GAME_7F0ACA28
 build/game/textrelated.o(.text)
 .text          0x000000007f0acb70     0x23c0 build/game/textrelated.o
                0x000000007f0acb70                null_init_main
                0x000000007f0acb78                sub_GAME_7F0ACB78
                0x000000007f0acb88                sub_GAME_7F0ACB88
                0x000000007f0acb94                sub_GAME_7F0ACB94
                0x000000007f0acba0                sub_GAME_7F0ACBA0
                0x000000007f0acbac                load_font_tables
                0x000000007f0acd98                microcode_constructor
                0x000000007f0acef0                combiner_bayer_lod_perspective
                0x000000007f0acf4c                draw_blackbox_to_screen
                0x000000007f0ad014                microcode_constructor_related_to_menus
                0x000000007f0ad0f8                sub_GAME_7F0AD0F8
                0x000000007f0adabc                en_text_write_stuff
                0x000000007f0addac                sub_GAME_7F0ADDAC
                0x000000007f0ae45c                sub_GAME_7F0AE45C
                0x000000007f0ae6ec                jp_text_write_stuff
                0x000000007f0ae98c                sub_GAME_7F0AE98C
                0x000000007f0aeb64                sub_GAME_7F0AEB64
                0x000000007f0aef0c                sub_GAME_7F0AEF0C
                0x000000007f0aef20                sub_GAME_7F0AEF20
 build/game/stan.o(.text)
 .text          0x000000007f0aef30     0x42d0 build/game/stan.o
                0x000000007f0aef30                sub_GAME_7F0AEF30
                0x000000007f0aef3c                sub_GAME_7F0AEF3C
                0x000000007f0aefe0                sub_GAME_7F0AEFE0
                0x000000007f0af000                stanRemovedAnimationRoutine
                0x000000007f0af00c                something_stan_c_debug_related
                0x000000007f0af038                sub_GAME_7F0AF038
                0x000000007f0af20c                sub_GAME_7F0AF20C
                0x000000007f0af5b8                stanLoadFile
                0x000000007f0af630                sub_GAME_7F0AF630
                0x000000007f0af638                sub_GAME_7F0AF638
                0x000000007f0af760                sub_GAME_7F0AF760
                0x000000007f0af808                sub_GAME_7F0AF808
                0x000000007f0af924                sub_GAME_7F0AF924
                0x000000007f0afa1c                sub_GAME_7F0AFA1C
                0x000000007f0afb1c                sub_GAME_7F0AFB1C
                0x000000007f0afb78                sub_GAME_7F0AFB78
                0x000000007f0afd1c                sub_GAME_7F0AFD1C
                0x000000007f0afe70                sub_GAME_7F0AFE70
                0x000000007f0affcc                sub_GAME_7F0AFFCC
                0x000000007f0b0018                sub_GAME_7F0B0018
                0x000000007f0b0064                sub_GAME_7F0B0064
                0x000000007f0b00c4                sub_GAME_7F0B00C4
                0x000000007f0b0140                sub_GAME_7F0B0140
                0x000000007f0b0198                sub_GAME_7F0B0198
                0x000000007f0b02d8                sub_GAME_7F0B02D8
                0x000000007f0b036c                sub_GAME_7F0B036C
                0x000000007f0b0400                sub_GAME_7F0B0400
                0x000000007f0b0518                sub_GAME_7F0B0518
                0x000000007f0b05c0                sub_GAME_7F0B05C0
                0x000000007f0b0688                sub_GAME_7F0B0688
                0x000000007f0b07bc                sub_GAME_7F0B07BC
                0x000000007f0b0914                sub_GAME_7F0B0914
                0x000000007f0b0be4                sub_GAME_7F0B0BE4
                0x000000007f0b0c24                sub_GAME_7F0B0C24
                0x000000007f0b0c98                sub_GAME_7F0B0C98
                0x000000007f0b0cec                sub_GAME_7F0B0CEC
                0x000000007f0b0d0c                sub_GAME_7F0B0D0C
                0x000000007f0b0e24                sub_GAME_7F0B0E24
                0x000000007f0b1410                sub_GAME_7F0B1410
                0x000000007f0b16c4                sub_GAME_7F0B16C4
                0x000000007f0b1794                sub_GAME_7F0B1794
                0x000000007f0b17e4                sub_GAME_7F0B17E4
                0x000000007f0b18b8                sub_GAME_7F0B18B8
                0x000000007f0b1cc4                sub_GAME_7F0B1CC4
                0x000000007f0b1ce0                sub_GAME_7F0B1CE0
                0x000000007f0b1cec                sub_GAME_7F0B1CEC
                0x000000007f0b1cf8                sub_GAME_7F0B1CF8
                0x000000007f0b1ddc                sub_GAME_7F0B1DDC
                0x000000007f0b20d0                sub_GAME_7F0B20D0
                0x000000007f0b2110                sub_GAME_7F0B2110
                0x000000007f0b2194                sub_GAME_7F0B2194
                0x000000007f0b21b0                sub_GAME_7F0B21B0
                0x000000007f0b2244                sub_GAME_7F0B2244
                0x000000007f0b2274                sub_GAME_7F0B2274
                0x000000007f0b2314                sub_GAME_7F0B2314
                0x000000007f0b239c                sub_GAME_7F0B239C
                0x000000007f0b23a4                sub_GAME_7F0B23A4
                0x000000007f0b23ac                sub_GAME_7F0B23AC
                0x000000007f0b2420                sub_GAME_7F0B2420
                0x000000007f0b260c                sub_GAME_7F0B260C
                0x000000007f0b26b8                sub_GAME_7F0B26B8
                0x000000007f0b2718                sub_GAME_7F0B2718
                0x000000007f0b28b0                sub_GAME_7F0B28B0
                0x000000007f0b2950                sub_GAME_7F0B2950
                0x000000007f0b2970                sub_GAME_7F0B2970
                0x000000007f0b2c2c                copy_tile_RGB_as_24bit
                0x000000007f0b2c74                sub_GAME_7F0B2C74
                0x000000007f0b2d14                sub_GAME_7F0B2D14
                0x000000007f0b2d38                sub_GAME_7F0B2D38
                0x000000007f0b2d48                sub_GAME_7F0B2D48
                0x000000007f0b2d50                stanConvertNameStringToS32
                0x000000007f0b2e58                stanMatchTileName
                0x000000007f0b2f00                sub_GAME_7F0B2F00
                0x000000007f0b2f2c                stanDetermineEOF
                0x000000007f0b2fd8                sub_GAME_7F0B2FD8
                0x000000007f0b2fe0                sub_GAME_7F0B2FE0
                0x000000007f0b3004                sub_GAME_7F0B3004
                0x000000007f0b3024                sub_GAME_7F0B3024
                0x000000007f0b3034                sub_GAME_7F0B3034
                0x000000007f0b303c                sub_GAME_7F0B303C
                0x000000007f0b3044                sub_GAME_7F0B3044
                0x000000007f0b312c                sub_GAME_7F0B312C
                0x000000007f0b3138                sub_GAME_7F0B3138
                0x000000007f0b31a4                sub_GAME_7F0B31A4
 build/game/unk_0B3200.o(.text)
 .text          0x000000007f0b3200      0x5c0 build/game/unk_0B3200.o
                0x000000007f0b3200                sub_GAME_7F0B3200
                0x000000007f0b32d8                sub_GAME_7F0B32D8
                0x000000007f0b33dc                sub_GAME_7F0B33DC
 build/game/bg.o(.text)
 .text          0x000000007f0b37c0     0x6f60 build/game/bg.o
                0x000000007f0b37c0                something_with_bg_c_debug
                0x000000007f0b37ec                sub_GAME_7F0B37EC
                0x000000007f0b38b4                sub_GAME_7F0B38B4
                0x000000007f0b39bc                sub_GAME_7F0B39BC
                0x000000007f0b3b04                sub_GAME_7F0B3B04
                0x000000007f0b3b20                sub_GAME_7F0B3B20
                0x000000007f0b3bc4                sub_GAME_7F0B3BC4
                0x000000007f0b3c0c                sub_GAME_7F0B3C0C
                0x000000007f0b3c8c                sub_GAME_7F0B3C8C
                0x000000007f0b4034                sub_GAME_7F0B4034
                0x000000007f0b4084                sub_GAME_7F0B4084
                0x000000007f0b40d4                sub_GAME_7F0B40D4
                0x000000007f0b4124                sub_GAME_7F0B4124
                0x000000007f0b47e0                sub_GAME_7F0B47E0
                0x000000007f0b4810                sub_GAME_7F0B4810
                0x000000007f0b4830                sub_GAME_7F0B4830
                0x000000007f0b483c                sub_GAME_7F0B483C
                0x000000007f0b4848                sub_GAME_7F0B4848
                0x000000007f0b4878                sub_GAME_7F0B4878
                0x000000007f0b4884                sub_GAME_7F0B4884
                0x000000007f0b4a50                sub_GAME_7F0B4A50
                0x000000007f0b4ab4                sub_GAME_7F0B4AB4
                0x000000007f0b4e40                sub_GAME_7F0B4E40
                0x000000007f0b4f9c                sub_GAME_7F0B4F9C
                0x000000007f0b4fb4                sub_GAME_7F0B4FB4
                0x000000007f0b4ff4                sub_GAME_7F0B4FF4
                0x000000007f0b5058                sub_GAME_7F0B5058
                0x000000007f0b5168                sub_GAME_7F0B5168
                0x000000007f0b519c                sub_GAME_7F0B519C
                0x000000007f0b5208                sub_GAME_7F0B5208
                0x000000007f0b5488                sub_GAME_7F0B5488
                0x000000007f0b5528                sub_GAME_7F0B5528
                0x000000007f0b5864                sub_GAME_7F0B5864
                0x000000007f0b5b14                sub_GAME_7F0B5B14
                0x000000007f0b5b60                sub_GAME_7F0B5B60
                0x000000007f0b5bdc                vis_is_inline_of_sight
                0x000000007f0b5cc0                sub_GAME_7F0B5CC0
                0x000000007f0b5d58                copy_4_floats_a1_to_a0
                0x000000007f0b5d7c                sub_GAME_7F0B5D7C
                0x000000007f0b5de0                sub_GAME_7F0B5DE0
                0x000000007f0b5e44                getMaxNumRooms
                0x000000007f0b5e50                sub_GAME_7F0B5E50
                0x000000007f0b5e6c                sub_GAME_7F0B5E6C
                0x000000007f0b5e88                sub_GAME_7F0B5E88
                0x000000007f0b5ed8                generate_room_load_string
                0x000000007f0b5f8c                sub_GAME_7F0B5F8C
                0x000000007f0b5fac                sub_GAME_7F0B5FAC
                0x000000007f0b609c                sub_GAME_7F0B609C
                0x000000007f0b61dc                sub_GAME_7F0B61DC
                0x000000007f0b6314                sub_GAME_7F0B6314
                0x000000007f0b6368                sub_GAME_7F0B6368
                0x000000007f0b65c4                sub_GAME_7F0B65C4
                0x000000007f0b667c                sub_GAME_7F0B667C
                0x000000007f0b66e8                sub_GAME_7F0B66E8
                0x000000007f0b677c                sub_GAME_7F0B677C
                0x000000007f0b6898                sub_GAME_7F0B6898
                0x000000007f0b6994                sub_GAME_7F0B6994
                0x000000007f0b6cec                sub_GAME_7F0B6CEC
                0x000000007f0b7010                sub_GAME_7F0B7010
                0x000000007f0b7a78                sub_GAME_7F0B7A78
                0x000000007f0b7d94                sub_GAME_7F0B7D94
                0x000000007f0b7da8                sub_GAME_7F0B7DA8
                0x000000007f0b7de4                sub_GAME_7F0B7DE4
                0x000000007f0b7ee4                sub_GAME_7F0B7EE4
                0x000000007f0b7f84                sub_GAME_7F0B7F84
                0x000000007f0b8374                push_arg_to_table
                0x000000007f0b83b0                pull_arg_from_stack
                0x000000007f0b83e4                sub_GAME_7F0B83E4
                0x000000007f0b8414                parse_global_vis_command_list
                0x000000007f0b8a24                sub_GAME_7F0B8A24
                0x000000007f0b8a6c                sub_GAME_7F0B8A6C
                0x000000007f0b8d78                sub_GAME_7F0B8D78
                0x000000007f0b8df4                sub_GAME_7F0B8DF4
                0x000000007f0b8e98                sub_GAME_7F0B8E98
                0x000000007f0b8efc                sub_GAME_7F0B8EFC
                0x000000007f0b8fd0                sub_GAME_7F0B8FD0
                0x000000007f0b9040                sub_GAME_7F0B9040
                0x000000007f0b908c                sub_GAME_7F0B908C
                0x000000007f0b92b4                sub_GAME_7F0B92B4
                0x000000007f0b9338                sub_GAME_7F0B9338
                0x000000007f0b95d8                sub_GAME_7F0B95D8
                0x000000007f0b96cc                sub_GAME_7F0B96CC
                0x000000007f0b993c                sub_GAME_7F0B993C
                0x000000007f0b9990                sub_GAME_7F0B9990
                0x000000007f0b9a14                sub_GAME_7F0B9A14
                0x000000007f0b9a2c                sub_GAME_7F0B9A2C
                0x000000007f0b9a7c                sub_GAME_7F0B9A7C
                0x000000007f0b9ae4                sub_GAME_7F0B9AE4
                0x000000007f0b9b04                sub_GAME_7F0B9B04
                0x000000007f0b9b24                sub_GAME_7F0B9B24
                0x000000007f0b9b44                sub_GAME_7F0B9B44
                0x000000007f0b9b64                sub_GAME_7F0B9B64
                0x000000007f0b9b94                sub_GAME_7F0B9B94
                0x000000007f0b9cc8                sub_GAME_7F0B9CC8
                0x000000007f0b9dbc                sub_GAME_7F0B9DBC
                0x000000007f0b9de4                sub_GAME_7F0B9DE4
                0x000000007f0b9df4                sub_GAME_7F0B9DF4
                0x000000007f0b9dfc                sub_GAME_7F0B9DFC
                0x000000007f0b9e04                sub_GAME_7F0B9E04
                0x000000007f0b9f14                sub_GAME_7F0B9F14
                0x000000007f0ba26c                sub_GAME_7F0BA26C
                0x000000007f0ba2d4                sub_GAME_7F0BA2D4
                0x000000007f0ba5c0                sub_GAME_7F0BA5C0
                0x000000007f0ba640                sub_GAME_7F0BA640
 build/game/fog.o(.text)
 .text          0x000000007f0ba720      0xdb0 build/game/fog.o
                0x000000007f0ba720                sub_GAME_7F0BA720
                0x000000007f0ba72c                sub_GAME_7F0BA72C
                0x000000007f0ba738                sub_GAME_7F0BA738
                0x000000007f0ba744                square_near_fog_value
                0x000000007f0ba758                copy_table1_env_to_current
                0x000000007f0ba9d0                copy_table2_env_to_current
                0x000000007f0baa5c                sub_GAME_7F0BAA5C
                0x000000007f0baa64                load_enviroment
                0x000000007f0baca8                switch_to_solosky2
                0x000000007f0bb070                sub_GAME_7F0BB070
                0x000000007f0bb298                sub_GAME_7F0BB298
                0x000000007f0bb2c8                sub_GAME_7F0BB2C8
                0x000000007f0bb398                return_nearfog_values
                0x000000007f0bb3a4                if_sky_present_convert_values
 build/game/lightfixture.o(.text)
 .text          0x000000007f0bb4d0     0x1060 build/game/lightfixture.o
                0x000000007f0bb4d0                init_lightfixture_tables
                0x000000007f0bb524                get_index_of_current_entry_in_init_lightfixture_table
                0x000000007f0bb59c                add_entry_to_init_lightfixture_table
                0x000000007f0bb600                save_ptrDL_enpoint_to_current_init_lightfixture_table
                0x000000007f0bb630                check_if_imageID_is_light
                0x000000007f0bb694                return_ptr_vertex_of_entry_room
                0x000000007f0bb6f4                sub_GAME_7F0BB6F4
                0x000000007f0bb874                sub_GAME_7F0BB874
                0x000000007f0bb978                sub_GAME_7F0BB978
                0x000000007f0bba20                sub_GAME_7F0BBA20
                0x000000007f0bbadc                sub_GAME_7F0BBADC
                0x000000007f0bbba8                sub_GAME_7F0BBBA8
                0x000000007f0bbc30                sub_GAME_7F0BBC30
                0x000000007f0bbccc                sub_GAME_7F0BBCCC
                0x000000007f0bbe0c                sub_GAME_7F0BBE0C
                0x000000007f0bc4c4                sub_GAME_7F0BC4C4
 build/game/unk_0BC530.o(.text)
 .text          0x000000007f0bc530      0x570 build/game/unk_0BC530.o
                0x000000007f0bc530                sub_GAME_7F0BC530
                0x000000007f0bc624                sub_GAME_7F0BC624
                0x000000007f0bc634                sub_GAME_7F0BC634
                0x000000007f0bc660                sub_GAME_7F0BC660
                0x000000007f0bc690                sub_GAME_7F0BC690
                0x000000007f0bc6f0                sub_GAME_7F0BC6F0
                0x000000007f0bc7d4                sub_GAME_7F0BC7D4
                0x000000007f0bc85c                sub_GAME_7F0BC85C
                0x000000007f0bc9c4                sub_GAME_7F0BC9C4
                0x000000007f0bca14                sub_GAME_7F0BCA14
                0x000000007f0bca34                sub_GAME_7F0BCA34
 build/game/ob.o(.text)
 .text          0x000000007f0bcaa0      0x9c0 build/game/ob.o
                0x000000007f0bcaa0                load_resource
                0x000000007f0bcb34                resource_load_from_indy
                0x000000007f0bcc28                ob_c_debug_setup
                0x000000007f0bccbc                _load_rom_index_to_membank
                0x000000007f0bcce4                _load_resource_index_to_membank
                0x000000007f0bcd04                _load_resource_named_to_membank
                0x000000007f0bcd40                _load_resource_named_to_buffer
                0x000000007f0bcd7c                load_bg_bytes_at_offset_to_membank
                0x000000007f0bce0c                load_rom_resource_index_to_membank
                0x000000007f0bcfe0                load_resource_index_to_buffer
                0x000000007f0bd100                get_temp_remaining_buffer_for_index
                0x000000007f0bd11c                get_remaining_buffer_for_index
                0x000000007f0bd138                sub_GAME_7F0BD138
                0x000000007f0bd188                sub_GAME_7F0BD188
                0x000000007f0bd1bc                something_mem_bank_a0
                0x000000007f0bd234                sub_GAME_7F0BD234
                0x000000007f0bd254                get_index_num_of_named_resource
                0x000000007f0bd384                sub_GAME_7F0BD384
                0x000000007f0bd38c                sub_GAME_7F0BD38C
                0x000000007f0bd3e4                sub_GAME_7F0BD3E4
                0x000000007f0bd410                sub_GAME_7F0BD410
 build/game/dyn.o(.text)
 .text          0x000000007f0bd460      0x490 build/game/dyn.o
                0x000000007f0bd460                something_with_dyn_c_debug
                0x000000007f0bd48c                set_vtx_gfx_mem_alloc
                0x000000007f0bd674                get_ptr_displaylist
                0x000000007f0bd69c                allocate_something_in_mgfx
                0x000000007f0bd6c4                sub_GAME_7F0BD6C4
                0x000000007f0bd6e0                sub_GAME_7F0BD6E0
                0x000000007f0bd6f8                sub_GAME_7F0BD6F8
                0x000000007f0bd714                sub_GAME_7F0BD714
                0x000000007f0bd738                allocate_something_in_mvtx
                0x000000007f0bd774                removed_debug_routine
                0x000000007f0bd77c                num_microcode_cmds_that_fit
                0x000000007f0bd7a4                sub_GAME_7F0BD7A4
                0x000000007f0bd7cc                compute_membar_display_string
                0x000000007f0bd810                draw_membars
 build/game/lvl.o(.text)
 .text          0x000000007f0bd8f0     0x2380 build/game/lvl.o
                0x000000007f0bd8f0                sub_GAME_7F0BD8F0
                0x000000007f0bd8fc                sub_GAME_7F0BD8FC
                0x000000007f0bd908                something_with_lvl_c_debug
                0x000000007f0bd984                sub_GAME_7F0BD984
                0x000000007f0bd9c4                sub_GAME_7F0BD9C4
                0x000000007f0bd9ec                sub_GAME_7F0BD9EC
                0x000000007f0bda38                sub_GAME_7F0BDA38
                0x000000007f0bda84                sub_GAME_7F0BDA84
                0x000000007f0bdab0                stage_load
                0x000000007f0bdf04                sub_GAME_7F0BDF04
                0x000000007f0bdf10                sub_GAME_7F0BDF10
                0x000000007f0be30c                sub_GAME_7F0BE30C
                0x000000007f0be8d0                sub_GAME_7F0BE8D0
                0x000000007f0beb88                manage_mp_game
                0x000000007f0bf800                sub_GAME_7F0BF800
                0x000000007f0bfb20                unload_stage_text_data
                0x000000007f0bfbf8                set_controls_locked_flag
                0x000000007f0bfc04                get_controls_locked_flag
                0x000000007f0bfc10                get_current_difficulty
                0x000000007f0bfc1c                set_difficulty
                0x000000007f0bfc28                set_mp_time
                0x000000007f0bfc34                set_mp_point
                0x000000007f0bfc40                get_cur_mp_sec
                0x000000007f0bfc4c                get_cur_mp_min
                0x000000007f0bfc58                get_stage_time_sec
                0x000000007f0bfc64                get_poweron_time_sec
 build/game/lvl_2.o(.text)
 .text          0x000000007f0bfc70      0xe00 build/game/lvl_2.o
                0x000000007f0bfc70                clear_ramrom_block_buffer_heading_ptrs
                0x000000007f0bfc8c                get_is_ramrom_flag
                0x000000007f0bfc98                get_recording_ramrom_flag
                0x000000007f0bfca4                interface_menu0B_runstage
                0x000000007f0bfcb0                finalize_ramrom_on_hw
                0x000000007f0bfd60                save_ramrom_to_devtool
                0x000000007f0bfe00                load_ramrom_from_devtool
                0x000000007f0bfe5c                record_player_input_as_packet
                0x000000007f0c0080                ramrom_replay_handler
                0x000000007f0c0268                iterate_ramrom_entries_handle_camera_out
                0x000000007f0c03a8                copy_current_ingame_registers_before_ramrom_playback
                0x000000007f0c04f4                copy_recorded_ramrom_registers_to_proper_place_ingame
                0x000000007f0c0640                test_if_recording_demos_this_stage_load
                0x000000007f0c07bc                setRamRomRecordSlot
                0x000000007f0c07d4                stop_recording_ramrom
                0x000000007f0c081c                replay_recorded_ramrom_at_address
                0x000000007f0c08a8                replay_recorded_ramrom_from_indy
                0x000000007f0c08c8                ensureCameraModeA
                0x000000007f0c08fc                stop_demo_playback
                0x000000007f0c0970                select_ramrom_to_play
                0x000000007f0c0a20                check_ramrom_flags
 build/game/unk_0C0A70.o(.text)
 .text          0x000000007f0c0a70      0x1a0 build/game/unk_0C0A70.o
                0x000000007f0c0a70                store_osgetcount
                0x000000007f0c0aa0                sub_GAME_7F0C0AA0
                0x000000007f0c0b4c                sub_GAME_7F0C0B4C
                0x000000007f0c0be4                sub_GAME_7F0C0BE4
                0x000000007f0c0bf0                sub_GAME_7F0C0BF0
 build/game/mp_music.o(.text)
 .text          0x000000007f0c0c10      0x9d0 build/game/mp_music.o
                0x000000007f0c0c10                sub_GAME_7F0C0C10
                0x000000007f0c0c30                sub_GAME_7F0C0C30
                0x000000007f0c0c3c                sub_GAME_7F0C0C3C
                0x000000007f0c11fc                sub_GAME_7F0C11FC
                0x000000007f0c1268                sub_GAME_7F0C1268
                0x000000007f0c1288                sub_GAME_7F0C1288
                0x000000007f0c12cc                sub_GAME_7F0C12CC
                0x000000007f0c1310                sub_GAME_7F0C1310
                0x000000007f0c1340                sub_GAME_7F0C1340
                0x000000007f0c1364                sub_GAME_7F0C1364
                0x000000007f0c13c8                reset_all_music_slots
                0x000000007f0c14fc                set_musicslot_time
                0x000000007f0c1558                reset_music_in_slot
 build/game/lvl_text.o(.text)
 .text          0x000000007f0c15e0      0x840 build/game/lvl_text.o
                0x000000007f0c15e0                get_textbank_number_for_stagenum
                0x000000007f0c16ec                init_LnameX
                0x000000007f0c1940                something_with_LnameJ
                0x000000007f0c1a30                something_with_LnameX
                0x000000007f0c1d08                load_mission_text_bank
                0x000000007f0c1d64                load_briefing_text_bank
                0x000000007f0c1dc4                blank_text_bank
                0x000000007f0c1dd8                get_textptr_for_textID
 build/game/mp_watch.o(.text)
 .text          0x000000007f0c1e20     0x4270 build/game/mp_watch.o
                0x000000007f0c1e20                check_can_advance_right_on_mpmenu
                0x000000007f0c1e8c                check_can_advance_left_on_mpmenu
                0x000000007f0c1ef8                check_if_player_is_pressing_anything_right
                0x000000007f0c1f68                check_if_player_is_pressing_anything_left
                0x000000007f0c1fdc                play_watch_sfx_beep
                0x000000007f0c2008                unpause_game
                0x000000007f0c2024                sub_GAME_7F0C2024
                0x000000007f0c2114                sub_GAME_7F0C2114
                0x000000007f0c2204                sub_GAME_7F0C2204
                0x000000007f0c234c                sub_GAME_7F0C234C
                0x000000007f0c2494                pauseAndLockControls
                0x000000007f0c24bc                sub_GAME_7F0C24BC
                0x000000007f0c2520                set_stopplay_flag
                0x000000007f0c2530                sub_GAME_7F0C2530
                0x000000007f0c2e80                sub_GAME_7F0C2E80
                0x000000007f0c35a0                display_text_for_playerdata_on_MP_menu
                0x000000007f0c38d8                get_points_for_mp_player
                0x000000007f0c3c94                write_playerrank_to_buffer
                0x000000007f0c3f5c                true_if_displaying_rank_in_mp
                0x000000007f0c3fcc                true_if_displaying_score_in_mp
                0x000000007f0c4024                mp_watch_menu_display
                0x000000007f0c6048                sub_GAME_7F0C6048
                0x000000007f0c6080                checkGamePaused
 build/game/radar.o(.text)
 .text          0x000000007f0c6090      0x540 build/game/radar.o
                0x000000007f0c6090                display_red_blue_on_radar
 build/game/mp_weapon.o(.text)
 .text          0x000000007f0c65d0       0x80 build/game/mp_weapon.o
                0x000000007f0c65d0                advance_mp_weapon_set_by_one_save_value
                0x000000007f0c65f8                get_ptr_current_mp_weapon_set_text_code
                0x000000007f0c6614                get_ptr_mp_weapon_set_data
                0x000000007f0c6630                set_mp_weapon_set
                0x000000007f0c663c                get_mp_weapon_set
 build/game/image.o(.text)
 .text          0x000000007f0c6650     0x58c0 build/game/image.o
                0x000000007f0c6650                nullsub_41
                0x000000007f0c6658                image_related_calls_decompressdata_function
                0x000000007f0c6bc8                copy_loaded_image_to_final_mem_location
                0x000000007f0c6c70                sub_GAME_7F0C6C70
                0x000000007f0c77ac                sub_GAME_7F0C77AC
                0x000000007f0c7bd8                sub_GAME_7F0C7BD8
                0x000000007f0c7dfc                process_huffman_compressed_images
                0x000000007f0c8754                image_decompresion_related
                0x000000007f0c91d0                generate_sample_table
                0x000000007f0c96bc                type4_7_9_getsamples
                0x000000007f0c9920                type5_6_7_getsamples
                0x000000007f0c9a24                sub_GAME_7F0C9A24
                0x000000007f0c9a48                image_get_alpha_values
                0x000000007f0c9a9c                image_compression0_expand
                0x000000007f0c9da4                generate_link_final_image
                0x000000007f0ca890                type5_generate_link_final_image
                0x000000007f0cac58                type6_7_generate_link_final_image
                0x000000007f0cb67c                sub_GAME_7F0CB67C
                0x000000007f0cb7e0                type8_9_doohick
                0x000000007f0cbaf4                sub_GAME_7F0CBAF4
                0x000000007f0cbb0c                sub_GAME_7F0CBB0C
                0x000000007f0cbb64                sub_GAME_7F0CBB64
                0x000000007f0cbb74                sub_GAME_7F0CBB74
                0x000000007f0cbc18                load_image_to_buffer
                0x000000007f0cbe50                sub_GAME_7F0CBE50
                0x000000007f0cbee8                sub_GAME_7F0CBEE8
 build/game/image_bank.o(.text)
 .text          0x000000007f0cbf10      0x5b0 build/game/image_bank.o
                0x000000007f0cbf10                sub_GAME_7F0CBF10
                0x000000007f0cbf2c                sub_GAME_7F0CBF2C
                0x000000007f0cbfb0                load_prepare_global_image_bank
 build/game/unk_0CC4C0.o(.text)
 .text          0x000000007f0cc4c0     0x2330 build/game/unk_0CC4C0.o
                0x000000007f0cc4c0                nullsub_47
                0x000000007f0cc4c8                sub_GAME_7F0CC4C8
                0x000000007f0cc51c                sub_GAME_7F0CC51C
                0x000000007f0cc548                sub_GAME_7F0CC548
                0x000000007f0cc574                sub_GAME_7F0CC574
                0x000000007f0cc690                sub_GAME_7F0CC690
                0x000000007f0cc714                sub_GAME_7F0CC714
                0x000000007f0cc7fc                sub_GAME_7F0CC7FC
                0x000000007f0cc8e4                sub_GAME_7F0CC8E4
                0x000000007f0cc994                sub_GAME_7F0CC994
                0x000000007f0cc9d4                sub_GAME_7F0CC9D4
                0x000000007f0cca9c                sub_GAME_7F0CCA9C
                0x000000007f0ccacc                sub_GAME_7F0CCACC
                0x000000007f0ccafc                sub_GAME_7F0CCAFC
                0x000000007f0ccb38                sub_GAME_7F0CCB38
                0x000000007f0ccc50                sub_GAME_7F0CCC50
                0x000000007f0ccfbc                sub_GAME_7F0CCFBC
                0x000000007f0cd078                expland_c0_DL_psuedocommands
                0x000000007f0cd430                sub_GAME_7F0CD430
                0x000000007f0cd7ac                sub_GAME_7F0CD7AC
                0x000000007f0cdb64                sub_GAME_7F0CDB64
                0x000000007f0cde18                sub_GAME_7F0CDE18
                0x000000007f0cdea8                sub_GAME_7F0CDEA8
                0x000000007f0cdfa8                sub_GAME_7F0CDFA8
                0x000000007f0ce064                sub_GAME_7F0CE064
                0x000000007f0ce0ac                sub_GAME_7F0CE0AC
                0x000000007f0ce118                process_microcode_sort_display_modes_expand_image_calls
                0x000000007f0ce794                sub_GAME_7F0CE794
 build/game/decompress.o(.text)
 .text          0x000000007f0ce7f0       0xc0 build/game/decompress.o
                0x000000007f0ce7f0                decompressdata
                0x000000007f0ce894                sub_GAME_7F0CE894
 build/game/zlib.o(.text)
 .text          0x000000007f0ce8b0     0x1500 build/game/zlib.o
                0x000000007f0ce8b0                sub_GAME_7F0CE8B0
                0x000000007f0ceef0                sub_GAME_7F0CEEF0
                0x000000007f0cf38c                zlib_decompressor_type0
                0x000000007f0cf528                zlib_decompressor_type1
                0x000000007f0cf690                zlib_decompressor_type2
                0x000000007f0cfbb4                select_zlib_decompression_routine
                0x000000007f0cfcd4                loop_to_decompress_entire_file
 build/game/rsp.o(.text)
 .text          0x000000007f0cfdb0      0x180 build/game/rsp.o
                0x000000007f0cfdb0                something_with_rsp_c_debug
                0x000000007f0cfddc                allocate_init_rsp_buffers
                0x000000007f0cfe18                load_rsp_microcode
 build/game/indy_comms.o(.text)
 .text          0x000000007f0cff30      0x250 build/game/indy_comms.o
                0x000000007f0cff30                init_indy_if_not_ready
                0x000000007f0cff64                nullsub_48
                0x000000007f0cff6c                init_indy_if_ready
                0x000000007f0cff9c                load_resource_on_indy
                0x000000007f0cffe0                indy_send_capture_data
                0x000000007f0d001c                indy_loadfile
                0x000000007f0d005c                check_file_exported
                0x000000007f0d0098                check_file_found_on_indy
                0x000000007f0d00e0                response_from_command_string
                0x000000007f0d0124                sub_GAME_7F0D0124
                0x000000007f0d0154                send_indy_close_port_cmd
 build/game/indy_0D0180.o(.text)
 .text          0x000000007f0d0180     0x18a0 build/game/indy_0D0180.o
                0x000000007f0d0180                sub_GAME_7F0D0180
                0x000000007f0d01d0                sub_GAME_7F0D01D0
                0x000000007f0d0220                sub_GAME_7F0D0220
                0x000000007f0d0358                sub_GAME_7F0D0358
                0x000000007f0d038c                sub_GAME_7F0D038C
                0x000000007f0d03d4                sub_GAME_7F0D03D4
                0x000000007f0d041c                sub_GAME_7F0D041C
                0x000000007f0d0460                sub_GAME_7F0D0460
                0x000000007f0d04c4                sub_GAME_7F0D04C4
                0x000000007f0d0514                sub_GAME_7F0D0514
                0x000000007f0d0578                sub_GAME_7F0D0578
                0x000000007f0d05d0                sub_GAME_7F0D05D0
                0x000000007f0d0644                sub_GAME_7F0D0644
                0x000000007f0d06c0                sub_GAME_7F0D06C0
                0x000000007f0d0740                sub_GAME_7F0D0740
                0x000000007f0d0790                sub_GAME_7F0D0790
                0x000000007f0d080c                sub_GAME_7F0D080C
                0x000000007f0d086c                sub_GAME_7F0D086C
                0x000000007f0d08e8                sub_GAME_7F0D08E8
                0x000000007f0d0938                sub_GAME_7F0D0938
                0x000000007f0d099c                sub_GAME_7F0D099C
                0x000000007f0d09ec                sub_GAME_7F0D09EC
                0x000000007f0d0a3c                post_indy__res_cmd_initialize
                0x000000007f0d0a7c                sub_GAME_7F0D0A7C
                0x000000007f0d0ac4                sub_GAME_7F0D0AC4
                0x000000007f0d0b0c                sub_GAME_7F0D0B0C
                0x000000007f0d0b54                sub_GAME_7F0D0B54
                0x000000007f0d0ba4                sub_GAME_7F0D0BA4
                0x000000007f0d0bf4                sub_GAME_7F0D0BF4
                0x000000007f0d0c68                post_indy__res_cmd_send_capture_data
                0x000000007f0d0cd0                sub_GAME_7F0D0CD0
                0x000000007f0d0d18                post_indy__res_cmd_request_ramrom_file
                0x000000007f0d0d74                sub_GAME_7F0D0D74
                0x000000007f0d0dd0                sub_GAME_7F0D0DD0
                0x000000007f0d0e2c                sub_GAME_7F0D0E2C
                0x000000007f0d0e74                sub_GAME_7F0D0E74
                0x000000007f0d0ebc                sub_GAME_7F0D0EBC
                0x000000007f0d0f04                sub_GAME_7F0D0F04
                0x000000007f0d0f4c                sub_GAME_7F0D0F4C
                0x000000007f0d10a8                sub_GAME_7F0D10A8
                0x000000007f0d1100                sub_GAME_7F0D1100
                0x000000007f0d11ac                sub_GAME_7F0D11AC
                0x000000007f0d1248                sub_GAME_7F0D1248
                0x000000007f0d12f4                sub_GAME_7F0D12F4
                0x000000007f0d13b0                sub_GAME_7F0D13B0
                0x000000007f0d1498                sub_GAME_7F0D1498
                0x000000007f0d1544                sub_GAME_7F0D1544
                0x000000007f0d160c                sub_GAME_7F0D160C
                0x000000007f0d16b8                sub_GAME_7F0D16B8
                0x000000007f0d1764                sub_GAME_7F0D1764
                0x000000007f0d17ac                sub_GAME_7F0D17AC
                0x000000007f0d17fc                sub_GAME_7F0D17FC
                0x000000007f0d1864                sub_GAME_7F0D1864
                0x000000007f0d18ac                sub_GAME_7F0D18AC
                0x000000007f0d1908                sub_GAME_7F0D1908
                0x000000007f0d1950                sub_GAME_7F0D1950
                0x000000007f0d1998                sub_GAME_7F0D1998
 build/game/game_debug.o(.text)
 .text          0x000000007f0d1a20       0x90 build/game/game_debug.o
                0x000000007f0d1a20                something_game_c_debug_related
                0x000000007f0d1a4c                reset_mem_bank_5
                0x000000007f0d1a7c                sub_GAME_7F0D1A7C
 build/game/compiletime.o(.text)
 .text          0x000000007f0d1ab0       0x10 build/game/compiletime.o
                0x000000007f0d1ab0                get_compile_time
 build/game/unk_0D1AC0.o(.text)
 .text          0x000000007f0d1ac0      0x8c0 build/game/unk_0D1AC0.o
                0x000000007f0d1ac0                sub_GAME_7F0D1AC0
                0x000000007f0d1b94                sub_GAME_7F0D1B94
                0x000000007f0d1bd0                sub_GAME_7F0D1BD0
                0x000000007f0d1dcc                sub_GAME_7F0D1DCC
                0x000000007f0d1dfc                sub_GAME_7F0D1DFC
                0x000000007f0d1e44                sub_GAME_7F0D1E44
                0x000000007f0d1e98                sub_GAME_7F0D1E98
                0x000000007f0d2320                sub_GAME_7F0D2320
 build/game/viewport.o(.text)
 .text          0x000000007f0d2380      0x3a0 build/game/viewport.o
                0x000000007f0d2380                remove_viewport_buffer
                0x000000007f0d238c                allocate_viewport_buffer
                0x000000007f0d2448                sub_GAME_7F0D2448
                0x000000007f0d2464                sub_GAME_7F0D2464
                0x000000007f0d2518                sub_GAME_7F0D2518
 build/game/music_0D2720.o(.text)
 .text          0x000000007f0d2720      0x1c0 build/game/music_0D2720.o
                0x000000007f0d2720                sub_GAME_7F0D2720
                0x000000007f0d2848                sub_GAME_7F0D2848
                0x000000007f0d2890                sub_GAME_7F0D2890
 build/game/spectrum.o(.text)
 .text          0x000000007f0d28e0    0x10470 build/game/spectrum.o
                0x000000007f0d28e0                sub_GAME_7F0D28E0
                0x000000007f0d2a84                sub_GAME_7F0D2A84
                0x000000007f0d2c84                spectrum_p1controller_to_kempston
                0x000000007f0d2fc4                init_spectrum_game
                0x000000007f0d3374                run_spectrum_game
                0x000000007f0d33b4                spectrum_draw_screen
                0x000000007f0d36d8                spectrum_input_handling
                0x000000007f0d37d4                nullsub_50
                0x000000007f0d37dc                sub_GAME_7F0D37DC
                0x000000007f0d382c                spectrum_hw_emulation
                [0x0000000000be648a]                __romPos = (__romPos + SIZEOF (.text_tlbcode))
                [0x000000008008e360]                __ramPos = (__ramPos + SIZEOF (.text_tlbcode))

.text           0x000000007f0e2d50        0x0 load address 0x0000000000117880
 .text          0x000000007f0e2d50        0x0 build/rom_header.o
 .text          0x000000007f0e2d50        0x0 build/assets/romfiles.o
 .text          0x000000007f0e2d50        0x0 build/assets/ramrom/ramrom.o
 .text          0x000000007f0e2d50        0x0 build/assets/font/font.o
 .text          0x000000007f0e2d50        0x0 build/assets/music/music.o
 .text          0x000000007f0e2d50        0x0 build/assets/obseg/ob_seg.o
 .text          0x000000007f0e2d50        0x0 build/assets/images/images.o

.romfiles_117880
                0x0000000000117880   0x320dda
 build/assets/romfiles.o(.romfiles)
 .romfiles      0x0000000000117880   0x1a7a50 build/assets/romfiles.o
                0x0000000000117880                jfont_dl117880
                0x0000000000117940                jfont_chardata117940
                0x0000000000123040                efont_chardata123040
                0x0000000000124ac0                animation_table
                0x000000000028e980                animation_data
                0x000000000029d160                Globalimagetable
                0x000000000029e560                Globalimagetable_commandblock
                0x00000000002a4d50                unknown2
 build/assets/ramrom/ramrom.o(.ramrom)
 .ramrom        0x00000000002bf2d0    0x27120 build/assets/ramrom/ramrom.o
                0x00000000002bf2d0                ramrom_Dam_1
                0x00000000002c44d0                ramrom_Dam_2
                0x00000000002c64a0                ramrom_Facility_1
                0x00000000002c7f50                ramrom_Facility_2
                0x00000000002ca330                ramrom_Facility_3
                0x00000000002cbfa0                ramrom_Runway_1
                0x00000000002ce6f0                ramrom_Runway_2
                0x00000000002d1000                ramrom_BunkerI_1
                0x00000000002d4390                ramrom_BunkerI_2
                0x00000000002d9610                ramrom_Silo_1
                0x00000000002db7a0                ramrom_Silo_2
                0x00000000002dd770                ramrom_Frigate_1
                0x00000000002df120                ramrom_Frigate_2
                0x00000000002e2600                ramrom_Train
 build/assets/font/font.o(.font)
 .font          0x00000000002e63f0     0x59f0 build/assets/font/font.o
                0x00000000002e63f0                font_first_font_table_controller_small
                0x00000000002e6694                font_second_font_table_controller_small
                0x00000000002e88a0                font_first_font_table_controller_large
                0x00000000002e8b44                font_second_font_table_controller_large
 build/assets/music/music.o(.music)
 .music         0x00000000002ebde0   0x12dbac build/assets/music/music.o
                0x00000000002ebde0                sfx.ctl
                0x00000000002f19a0                sfx.tbl
                0x00000000003b4450                instruments.ctl
                0x00000000003b87f0                instruments.tbl
                0x0000000000419790                number_music_samples
                0x0000000000419794                table_music_data
 build/assets/music/music.o(.musiccompressed)
 .musiccompressed
                0x000000000041998c    0x1ecce build/assets/music/music.o
                0x000000000041998c                Mno_music
                0x00000000004199b6                Msolo_death_abrev
                0x0000000000419b8c                Mintro_eye
                0x000000000041a43a                Mtrain
                0x000000000041b024                Mdepot
                0x000000000041bdc4                Mjungle_unused
                0x000000000041cb5c                Mcitadel
                0x000000000041d91c                Mfacility
                0x000000000041e3ea                Mcontrol
                0x000000000041ef48                Mdam
                0x000000000041fd4c                Mfrigate
                0x0000000000420b2c                Marchives
                0x0000000000421480                Msilo
                0x00000000004222f0                Mjungle_perimeter_unused
                0x000000000042325c                Mstreets
                0x0000000000423f5e                Mbunker1
                0x00000000004245d0                Mbunker2
                0x0000000000424c50                Mstatue
                0x00000000004255e8                Melevator_control
                0x0000000000425fc2                Mcradle
                0x0000000000426d22                Mnull1
                0x0000000000426d4c                Melevator_wc
                0x0000000000427392                Megyptian
                0x000000000042812c                Mfolders
                0x000000000042850e                Mwatchmusic
                0x0000000000428700                Maztec
                0x0000000000429372                Mwatercaverns
                0x000000000042a19e                Mdeathsolo
                0x000000000042a504                Msurface2
                0x000000000042b2ba                Mtrainx
                0x000000000042bb5a                Mnull2
                0x000000000042bb84                Mfacilityx
                0x000000000042c4dc                Mdepotx
                0x000000000042cc98                Mcontrolx
                0x000000000042d1e0                Mwatercavernsx
                0x000000000042d934                Mdamx
                0x000000000042de54                Mfrigatex
                0x000000000042e416                Marchivesx
                0x000000000042eb3a                Msilox
                0x000000000042f42e                Mnull3
                0x000000000042f458                Mstreetsx
                0x000000000042fac4                Mbunker1x
                0x000000000043026a                Mbunker2x
                0x00000000004308b8                Mjunglex
                0x00000000004310ce                Mnint_rare_logo
                0x0000000000431500                Mstatuex
                0x0000000000431bb8                Maztecx
                0x000000000043248e                Megyptianx
                0x0000000000432d3e                Mcradlex
                0x0000000000433408                Mcuba
                0x0000000000433c52                Mrunway
                0x0000000000434970                Mrunway_plane
                0x0000000000434c4a                Msurface2x
                0x0000000000435372                Mwindblowing
                0x0000000000435894                Mmultideath_alt
                0x0000000000435aa0                Mjungle
                0x0000000000436228                Mrunwayx
                0x000000000043684a                Msurface1
                0x00000000004375b2                Mmultiplayerdeath
                0x000000000043787a                Msurface1x
                0x0000000000437fa2                Msurface2_ending
                0x000000000043823e                Mstatue_ending
                0x00000000004383a4                Mfrigate_outro
                [0x0000000000be648a]                __romPos = (__romPos + SIZEOF (.romfiles_117880))

.ob_seg         0x0000000000438660   0x4bef10
 build/assets/obseg/ob_seg.o(.ob_seg)
 .ob_seg        0x0000000000438660   0x4bef10 build/assets/obseg/ob_seg.o
                0x0000000000438660                bg_sev_all_p_seg
                0x0000000000449450                bg_silo_all_p_seg
                0x000000000049a390                bg_stat_all_p_seg
                0x00000000004bc460                bg_arec_all_p_seg
                0x00000000004ea7e0                bg_arch_all_p_seg
                0x00000000005102d0                bg_tra_all_p_seg
                0x0000000000530840                bg_dest_all_p_seg
                0x000000000055e200                bg_sevb_all_p_seg
                0x0000000000578fa0                bg_azt_all_p_seg
                0x000000000059a9f0                bg_pete_all_p_seg
                0x00000000005b4620                bg_depo_all_p_seg
                0x00000000005e0f90                bg_ref_all_p_seg
                0x00000000005ea5a0                bg_cryp_all_p_seg
                0x00000000005ffc50                bg_dam_all_p_seg
                0x000000000062fdf0                bg_ark_all_p_seg
                0x0000000000660d70                bg_run_all_p_seg
                0x000000000066b140                bg_sevx_all_p_seg
                0x0000000000687710                bg_jun_all_p_seg
                0x000000000069c860                bg_dish_all_p_seg
                0x00000000006a10d0                bg_cave_all_p_seg
                0x00000000006c55c0                bg_cat_all_p_seg
                0x00000000006caaf0                bg_crad_all_p_seg
                0x00000000006dae40                bg_ash_all_p_seg
                0x00000000006dae40                bg_ame_all_p_seg
                0x00000000006dae40                bg_imp_all_p_seg
                0x00000000006e4da0                bg_oat_all_p_seg
                0x00000000006ebbf0                bg_len_all_p_seg
                0x00000000006ecb90                CarmourguardZ
                0x00000000006ef010                CbaronsamediZ
                0x00000000006f2700                CbluecamguardZ
                0x00000000006f4df0                CbluemanZ
                0x00000000006f6c00                CbluewomanZ
                0x00000000006f8ac0                CboilerbondZ
                0x00000000006fb6d0                CboilertrevZ
                0x00000000006fed50                CborisZ
                0x0000000000701e70                CcamguardZ
                0x0000000000704550                CcardimanZ
                0x0000000000706350                CcheckmanZ
                0x00000000007081d0                CcommguardZ
                0x000000000070a7d0                CdjbondZ
                0x000000000070d660                CfattechwomanZ
                0x000000000070f580                Cgreatguard2Z
                0x0000000000711ca0                CgreatguardZ
                0x0000000000714320                CgreyguardZ
                0x00000000007169f0                CgreymanZ
                0x00000000007187b0                CheadalanZ
                0x0000000000718d80                CheadbZ
                0x00000000007192f0                CheadbalaclavaZ
                0x00000000007196c0                CheadbikeZ
                0x0000000000719d60                CheadbrosnanZ
                0x000000000071aab0                CheadbrosnanboilerZ
                0x000000000071b650                CheadbrosnansnowZ
                0x000000000071c4d0                CheadbrosnansuitZ
                0x000000000071d250                CheadbrosnantimberZ
                0x000000000071de10                CheadchrisZ
                0x000000000071e350                CheaddaveZ
                0x000000000071e8d0                CheaddesZ
                0x000000000071ee00                CheadduncanZ
                0x000000000071f320                CheaddwayneZ
                0x000000000071f8a0                CheadgrahamZ
                0x000000000071fe10                CheadgrantZ
                0x0000000000720340                CheadjimZ
                0x0000000000720870                Cheadjoe2Z
                0x0000000000720c90                CheadjoeZ
                0x0000000000721200                CheadjoelZ
                0x0000000000721710                CheadkarlZ
                0x0000000000721c70                CheadkenZ
                0x00000000007221c0                CheadleeZ
                0x0000000000722740                CheadmandyZ
                0x0000000000722b30                CheadmarionZ
                0x0000000000722f40                CheadmarkZ
                0x0000000000723470                CheadmartinZ
                0x00000000007239d0                CheadmishkinZ
                0x0000000000723f30                CheadneilZ
                0x0000000000724450                CheadpeteZ
                0x00000000007249e0                CheadrobinZ
                0x0000000000724ef0                CheadsallyZ
                0x00000000007252f0                CheadscottZ
                0x0000000000725870                CheadshaunZ
                0x0000000000725e50                CheadsteveeZ
                0x00000000007263a0                CheadstevehZ
                0x00000000007268f0                CheadvivienZ
                0x0000000000726d80                CjawsZ
                0x00000000007299c0                CjeanwomanZ
                0x000000000072b9d0                CmaydayZ
                0x000000000072e570                CmoonfemaleZ
                0x00000000007306c0                CmoonguardZ
                0x0000000000732cb0                CnatalyaZ
                0x0000000000736570                CnavyguardZ
                0x0000000000738c50                CoddjobZ
                0x000000000073bd80                ColiveguardZ
                0x000000000073e3d0                CorumovZ
                0x0000000000741800                CpilotZ
                0x0000000000744880                CredmanZ
                0x0000000000746fb0                CrusguardZ
                0x0000000000748be0                CsnowbondZ
                0x000000000074bf10                CsnowguardZ
                0x000000000074eb90                CspicebondZ
                0x00000000007524b0                Csuit_lf_handZ
                0x00000000007556d0                CsuitbondZ
                0x0000000000758460                CtechmanZ
                0x000000000075ab10                CtechwomanZ
                0x000000000075cb00                CtimberbondZ
                0x000000000075f830                CtrevelyanZ
                0x0000000000763000                CtrevguardZ
                0x0000000000765610                CvalentinZ
                0x0000000000768580                CxeniaZ
                0x000000000076bf70                Gak47Z
                0x000000000076c980                GaudiotapeZ
                0x000000000076cd10                GautoshotZ
                0x000000000076e520                GblackboxZ
                0x000000000076eb20                GblueprintsZ
                0x000000000076ec20                GbombcaseZ
                0x000000000076f3b0                GbombdefuserZ
                0x000000000076f9a0                GbriefcaseZ
                0x0000000000770130                GbugZ
                0x0000000000770aa0                GbugdetectorZ
                0x0000000000770df0                GbungeeZ
                0x0000000000771140                GcameraZ
                0x00000000007715c0                GcartblueZ
                0x0000000000771820                GcartridgeZ
                0x0000000000771950                GcartrifleZ
                0x0000000000771b60                GcartshellZ
                0x0000000000771d60                GcircuitboardZ
                0x0000000000771ea0                GclipboardZ
                0x0000000000772090                GcreditcardZ
                0x00000000007723e0                GdarglassesZ
                0x0000000000772730                GdatathiefZ
                0x0000000000772870                GdattapeZ
                0x00000000007729e0                GdoordecoderZ
                0x0000000000772f60                GdoorexploderZ
                0x00000000007732b0                GdossierredZ
                0x0000000000773610                GdynamiteZ
                0x0000000000773960                GexpelosivefloppyZ
                0x0000000000773bb0                GexplosivepenZ
                0x0000000000773f00                GextinguisherZ
                0x00000000007746f0                GfingergunZ
                0x0000000000774a40                GfistZ
                0x0000000000776140                GflarepistolZ
                0x0000000000776490                Gfnp90Z
                0x0000000000777130                GgaskeyringZ
                0x0000000000777b60                GgoldbarZ
                0x0000000000777eb0                GgoldeneyekeyZ
                0x0000000000778860                GgoldengunZ
                0x000000000077a040                GgoldwppkZ
                0x000000000077b9a0                GgrenadeZ
                0x000000000077c3d0                GgrenadelaunchZ
                0x000000000077d450                GheroinZ
                0x000000000077d7a0                GjoypadZ
                0x000000000077f650                GkeyanalysercaseZ
                0x000000000077fde0                GkeyboltZ
                0x00000000007807d0                GkeycardZ
                0x0000000000780900                GkeyyaleZ
                0x0000000000781650                GknifeZ
                0x0000000000783120                GlaserZ
                0x0000000000783f10                GlectreZ
                0x0000000000784260                GlockexploderZ
                0x00000000007845b0                Gm16Z
                0x0000000000784fd0                GmapZ
                0x00000000007850c0                GmicrocameraZ
                0x0000000000785700                GmicrocodeZ
                0x0000000000785a50                GmicrofilmZ
                0x0000000000785da0                GmoneyZ
                0x00000000007860f0                Gmp5kZ
                0x0000000000786cd0                Gmp5ksilZ
                0x00000000007879d0                GpitongunZ
                0x0000000000787d20                GplansZ
                0x0000000000787ef0                GplastiqueZ
                0x0000000000788240                GpolarizedglassesZ
                0x00000000007887a0                GproximitymineZ
                0x0000000000788f90                GremotemineZ
                0x0000000000789950                GrocketlaunchZ
                0x000000000078ab70                GrugerZ
                0x000000000078c900                GsafecrackercaseZ
                0x000000000078d090                GshotgunZ
                0x000000000078df70                GsilverwppkZ
                0x000000000078f8d0                GskorpionZ
                0x0000000000790ad0                GsniperrifleZ
                0x0000000000791b40                GspecterZ
                0x00000000007927c0                GspooltapeZ
                0x0000000000792b10                GspyfileZ
                0x0000000000792e60                GstafflistZ
                0x0000000000793000                GtaserZ
                0x0000000000794e60                GthrowknifeZ
                0x0000000000796950                GtimedmineZ
                0x0000000000797410                GtriggerZ
                0x000000000079a810                Gtt33Z
                0x000000000079c330                GuziZ
                0x000000000079cc40                GvideotapeZ
                0x000000000079ce50                GwatchcommunicatorZ
                0x000000000079e2b0                GwatchgeigercounterZ
                0x000000000079f710                GwatchidentifierZ
                0x00000000007a0b70                GwatchlaserZ
                0x00000000007a3f70                GwatchmagnetattractZ
                0x00000000007a53c0                GwatchmagnetrepelZ
                0x00000000007a6820                GweaponcaseZ
                0x00000000007a6fb0                GwppkZ
                0x00000000007a8c40                GwppksilZ
                0x00000000007aa980                GwristdartZ
                0x00000000007aacd0                PICBMZ
                0x00000000007ad250                PICBM_noseZ
                0x00000000007ada00                Pak47magZ
                0x00000000007adbe0                Palarm1Z
                0x00000000007add40                Palarm2Z
                0x00000000007adee0                Pammo_crate1Z
                0x00000000007ae120                Pammo_crate2Z
                0x00000000007ae360                Pammo_crate3Z
                0x00000000007ae5b0                Pammo_crate4Z
                0x00000000007ae820                Pammo_crate5Z
                0x00000000007aeae0                PapcZ
                0x00000000007b0740                Parchsecdoor1Z
                0x00000000007b0920                Parchsecdoor2Z
                0x00000000007b0af0                ParticZ
                0x00000000007b18f0                PartictrailerZ
                0x00000000007b2200                PbarricadeZ
                0x00000000007b2440                Pbin1Z
                0x00000000007b2790                Pblotter1Z
                0x00000000007b2870                PbodyarmourZ
                0x00000000007b2d10                PbodyarmourvestZ
                0x00000000007b3130                PbollardZ
                0x00000000007b3330                PbombZ
                0x00000000007b34a0                Pbook1Z
                0x00000000007b3630                Pbookshelf1Z
                0x00000000007b3d20                Pborg_crateZ
                0x00000000007b3e90                PboxcartridgesZ
                0x00000000007b4090                Pboxes2x4Z
                0x00000000007b44c0                Pboxes3x4Z
                0x00000000007b4900                Pboxes4x4Z
                0x00000000007b4f60                PbrakeunitZ
                0x00000000007b52d0                Pbridge_console1aZ
                0x00000000007b5850                Pbridge_console1bZ
                0x00000000007b5db0                Pbridge_console2aZ
                0x00000000007b6330                Pbridge_console2bZ
                0x00000000007b6820                Pbridge_console3aZ
                0x00000000007b6d70                Pbridge_console3bZ
                0x00000000007b7300                PcarbmwZ
                0x00000000007b7fe0                Pcard_box1Z
                0x00000000007b81e0                Pcard_box2Z
                0x00000000007b8420                Pcard_box3Z
                0x00000000007b8610                Pcard_box4Z
                0x00000000007b87c0                Pcard_box5Z
                0x00000000007b89c0                Pcard_box6Z
                0x00000000007b8bb0                PcarescortZ
                0x00000000007b97b0                PcargolfZ
                0x00000000007ba3e0                PcarweirdZ
                0x00000000007bb520                PcarzilZ
                0x00000000007bcb20                PcctvZ
                0x00000000007bcea0                PchraudiotapeZ
                0x00000000007bd400                PchrautoshotZ
                0x00000000007bd760                PchrblackboxZ
                0x00000000007bdfe0                PchrblueprintsZ
                0x00000000007be130                PchrbombcaseZ
                0x00000000007be320                PchrbombdefuserZ
                0x00000000007bec00                PchrbriefcaseZ
                0x00000000007bed90                PchrbugZ
                0x00000000007bfb40                PchrbugdetectorZ
                0x00000000007bfcb0                PchrbungeeZ
                0x00000000007bfe20                PchrcameraZ
                0x00000000007c04b0                PchrcircuitboardZ
                0x00000000007c0650                PchrclipboardZ
                0x00000000007c08d0                PchrcreditcardZ
                0x00000000007c0a40                PchrdarkglassesZ
                0x00000000007c0bb0                PchrdatathiefZ
                0x00000000007c0d50                PchrdattapeZ
                0x00000000007c0f40                PchrdoordecoderZ
                0x00000000007c17a0                PchrdoorexploderZ
                0x00000000007c1910                PchrdossierredZ
                0x00000000007c1de0                PchrdynamiteZ
                0x00000000007c1f50                PchrexplosivepenZ
                0x00000000007c20c0                PchrextinguisherZ
                0x00000000007c25c0                PchrfingergunZ
                0x00000000007c2730                PchrflarepistolZ
                0x00000000007c28a0                Pchrfnp90Z
                0x00000000007c2d00                PchrgaskeyringZ
                0x00000000007c3c10                PchrgoldbarZ
                0x00000000007c3d80                PchrgoldenZ
                0x00000000007c3ff0                PchrgoldeneyekeyZ
                0x00000000007c4e90                PchrgoldwppkZ
                0x00000000007c5000                PchrgrenadeZ
                0x00000000007c5370                PchrgrenadelaunchZ
                0x00000000007c5700                PchrgrenaderoundZ
                0x00000000007c5970                PchrheroinZ
                0x00000000007c5ae0                PchrkalashZ
                0x00000000007c5ed0                PchrkeyanalysercaseZ
                0x00000000007c60c0                PchrkeyboltZ
                0x00000000007c6f60                PchrkeyyaleZ
                0x00000000007c83c0                PchrknifeZ
                0x00000000007c85c0                PchrlaserZ
                0x00000000007c8980                PchrlectreZ
                0x00000000007c8af0                PchrlockexploderZ
                0x00000000007c8c60                Pchrm16Z
                0x00000000007c9030                PchrmapZ
                0x00000000007c9180                PchrmicrocameraZ
                0x00000000007c9a70                PchrmicrocodeZ
                0x00000000007c9be0                PchrmicrofilmZ
                0x00000000007c9d50                PchrmoneyZ
                0x00000000007c9ec0                Pchrmp5kZ
                0x00000000007ca240                Pchrmp5ksilZ
                0x00000000007ca650                PchrpitongunZ
                0x00000000007ca7c0                PchrplansZ
                0x00000000007caa50                PchrplastiqueZ
                0x00000000007caeb0                PchrpolarizedglassesZ
                0x00000000007cb770                PchrproximitymineZ
                0x00000000007cbbd0                PchrremotemineZ
                0x00000000007cc030                PchrrocketZ
                0x00000000007cc5e0                PchrrocketlaunchZ
                0x00000000007cc9c0                PchrrugerZ
                0x00000000007ccda0                PchrsafecrackercaseZ
                0x00000000007ccf90                PchrshotgunZ
                0x00000000007cd2e0                PchrsilverwppkZ
                0x00000000007cd450                PchrskorpionZ
                0x00000000007cd7d0                PchrsniperrifleZ
                0x00000000007cdb60                PchrspectreZ
                0x00000000007cded0                PchrspooltapeZ
                0x00000000007ce040                PchrspyfileZ
                0x00000000007ce1b0                PchrstafflistZ
                0x00000000007ce3d0                PchrtesttubeZ
                0x00000000007ce590                PchrthrowknifeZ
                0x00000000007ce7b0                PchrtimedmineZ
                0x00000000007cece0                Pchrtt33Z
                0x00000000007cef70                PchruziZ
                0x00000000007cf240                PchrvideotapeZ
                0x00000000007cf510                PchrweaponcaseZ
                0x00000000007cf710                PchrwppkZ
                0x00000000007cf950                PchrwppksilZ
                0x00000000007cfc30                PchrwristdartZ
                0x00000000007cfda0                Pconsole1Z
                0x00000000007d0420                Pconsole2Z
                0x00000000007d0aa0                Pconsole3Z
                0x00000000007d1130                Pconsole_sev2aZ
                0x00000000007d1550                Pconsole_sev2bZ
                0x00000000007d1a10                Pconsole_sev2cZ
                0x00000000007d1e50                Pconsole_sev2dZ
                0x00000000007d2280                Pconsole_sev_GEaZ
                0x00000000007d26b0                Pconsole_sev_GEbZ
                0x00000000007d2ae0                Pconsole_sevaZ
                0x00000000007d2f60                Pconsole_sevbZ
                0x00000000007d33d0                Pconsole_sevcZ
                0x00000000007d3800                Pconsole_sevdZ
                0x00000000007d3c30                Pcryptdoor1aZ
                0x00000000007d3dc0                Pcryptdoor1bZ
                0x00000000007d3f50                Pcryptdoor2aZ
                0x00000000007d40e0                Pcryptdoor2bZ
                0x00000000007d4270                Pcryptdoor3Z
                0x00000000007d44e0                Pcryptdoor4Z
                0x00000000007d4660                PdamchaindoorZ
                0x00000000007d48e0                PdamgatedoorZ
                0x00000000007d4b00                PdamtundoorZ
                0x00000000007d4e70                Pdepot_door_steelZ
                0x00000000007d5010                Pdepot_gate_entryZ
                0x00000000007d5250                Pdesk1Z
                0x00000000007d53d0                Pdesk2Z
                0x00000000007d5550                Pdesk_arecibo1Z
                0x00000000007d5790                Pdesk_lamp2Z
                0x00000000007d5a90                Pdest_engineZ
                0x00000000007d7380                Pdest_exocetZ
                0x00000000007d79e0                Pdest_gunZ
                0x00000000007d8050                Pdest_harpoonZ
                0x00000000007d88f0                Pdest_seawolfZ
                0x00000000007d98a0                Pdisc_readerZ
                0x00000000007d9a60                Pdisk_drive1Z
                0x00000000007d9bf0                Pdoor_azt_chairZ
                0x00000000007d9d70                Pdoor_azt_deskZ
                0x00000000007da1b0                Pdoor_azt_desk_topZ
                0x00000000007da540                Pdoor_aztecZ
                0x00000000007da770                Pdoor_dest1Z
                0x00000000007daa70                Pdoor_dest2Z
                0x00000000007dae30                Pdoor_eyelidZ
                0x00000000007db390                Pdoor_irisZ
                0x00000000007dbde0                Pdoor_mfZ
                0x00000000007dc0d0                Pdoor_roller1Z
                0x00000000007dc440                Pdoor_roller2Z
                0x00000000007dc680                Pdoor_roller3Z
                0x00000000007dc8c0                Pdoor_roller4Z
                0x00000000007dcb20                Pdoor_rollertrainZ
                0x00000000007dcc50                Pdoor_st_arec1Z
                0x00000000007dceb0                Pdoor_st_arec2Z
                0x00000000007dd190                Pdoor_winZ
                0x00000000007dd330                PdoorconsoleZ
                0x00000000007dd7a0                PdoorpanelZ
                0x00000000007ddb10                Pdoorprison1Z
                0x00000000007ddc60                PdoorstatgateZ
                0x00000000007dde60                PexplosionbitZ
                0x00000000007ddf80                Pfiling_cabinet1Z
                0x00000000007de100                PflagZ
                0x00000000007de230                PfloppyZ
                0x00000000007de550                Pfnp90magZ
                0x00000000007de6f0                Pgas_plant_met1_do1Z
                0x00000000007dea70                Pgas_plant_sw2_do1Z
                0x00000000007dec50                Pgas_plant_sw3_do1Z
                0x00000000007dee50                Pgas_plant_sw4_do1Z
                0x00000000007defb0                Pgas_plant_sw_do1Z
                0x00000000007df240                Pgas_plant_wc_cub1Z
                0x00000000007df450                PgasbarrelZ
                0x00000000007df660                PgasbarrelsZ
                0x00000000007dfba0                Pgasplant_clear_doorZ
                0x00000000007e0100                PgastankZ
                0x00000000007e06b0                Pglassware1Z
                0x00000000007e0810                Pglassware2Z
                0x00000000007e0aa0                Pglassware3Z
                0x00000000007e0cb0                Pglassware4Z
                0x00000000007e1230                PgoldeneyelogoZ
                0x00000000007e20e0                PgoldenshellsZ
                0x00000000007e22e0                PgroundgunZ
                0x00000000007e2ab0                Pgun_runway1Z
                0x00000000007e31f0                PhatberetZ
                0x00000000007e3490                PhatberetblueZ
                0x00000000007e3760                PhatberetredZ
                0x00000000007e3a40                PhatchboltZ
                0x00000000007e3b10                PhatchdoorZ
                0x00000000007e3d30                PhatchsevxZ
                0x00000000007e3ea0                PhatfurryZ
                0x00000000007e40d0                PhatfurryblackZ
                0x00000000007e42f0                PhatfurrybrownZ
                0x00000000007e4500                PhathelmetZ
                0x00000000007e4730                PhathelmetgreyZ
                0x00000000007e4960                PhatmoonZ
                0x00000000007e4d40                PhatpeakedZ
                0x00000000007e5050                PhattbirdZ
                0x00000000007e52a0                PhattbirdbrownZ
                0x00000000007e5510                PhelicopterZ
                0x00000000007e9730                PhindZ
                0x00000000007eaea0                PjeepZ
                0x00000000007ec000                Pjerry_can1Z
                0x00000000007ec260                Pjungle3_treeZ
                0x00000000007ec9e0                Pjungle5_treeZ
                0x00000000007ecf10                Pkey_holderZ
                0x00000000007ed260                Pkeyboard1Z
                0x00000000007ed3d0                Pkit_units1Z
                0x00000000007ed670                PlabbenchZ
                0x00000000007eda40                PlandmineZ
                0x00000000007edcb0                PlegalpageZ
                0x00000000007eec70                Pletter_tray1Z
                0x00000000007eedd0                Plocker3Z
                0x00000000007eef60                Plocker4Z
                0x00000000007ef0f0                Pm16magZ
                0x00000000007ef230                PmagnumshellsZ
                0x00000000007ef430                Pmainframe1Z
                0x00000000007ef730                Pmainframe2Z
                0x00000000007efa00                Pmetal_chair1Z
                0x00000000007efd40                Pmetal_crate1Z
                0x00000000007eff00                Pmetal_crate2Z
                0x00000000007f00c0                Pmetal_crate3Z
                0x00000000007f0280                Pmetal_crate4Z
                0x00000000007f0440                PmilcopterZ
                0x00000000007f1d20                PmiltruckZ
                0x00000000007f4020                Pmissile_rack2Z
                0x00000000007f4a30                Pmissile_rackZ
                0x00000000007f4e10                PmodemboxZ
                0x00000000007f5150                PmotorbikeZ
                0x00000000007f6010                Pmp5kmagZ
                0x00000000007f6160                PnintendologoZ
                0x00000000007f8c40                Poil_drum1Z
                0x00000000007f8eb0                Poil_drum2Z
                0x00000000007f91a0                Poil_drum3Z
                0x00000000007f9490                Poil_drum5Z
                0x00000000007f9780                Poil_drum6Z
                0x00000000007f9a90                Poil_drum7Z
                0x00000000007f9d90                PpadlockZ
                0x00000000007fa7e0                PpalmZ
                0x00000000007fac30                PpalmtreeZ
                0x00000000007fb100                Pphone1Z
                0x00000000007fb240                PplaneZ
                0x00000000007fd820                Pplant11Z
                0x00000000007fdbe0                Pplant1Z
                0x00000000007fdf70                Pplant2Z
                0x00000000007fe2d0                Pplant2bZ
                0x00000000007fe6e0                Pplant3Z
                0x00000000007feb30                Pradio_unit1Z
                0x00000000007fece0                Pradio_unit2Z
                0x00000000007feea0                Pradio_unit3Z
                0x00000000007ff060                Pradio_unit4Z
                0x00000000007ff220                ProofgunZ
                0x00000000007ff880                PsafeZ
                0x00000000007ffbd0                PsafedoorZ
                0x00000000008000c0                Psat1_reflectZ
                0x0000000000801630                PsatboxZ
                0x0000000000801750                PsatdishZ
                0x0000000000801bb0                Psec_panelZ
                0x0000000000801d50                Psev_door3Z
                0x0000000000801fe0                Psev_door3_windZ
                0x0000000000802370                Psev_door4_windZ
                0x0000000000802750                Psev_doorZ
                0x0000000000802aa0                Psev_door_v1Z
                0x0000000000802dd0                Psev_trislideZ
                0x0000000000803180                PsevdishZ
                0x00000000008040a0                PsevdoormetslideZ
                0x0000000000804380                PsevdoornowindZ
                0x00000000008044f0                PsevdoorwindZ
                0x0000000000804920                PsevdoorwoodZ
                0x0000000000804cd0                PshuttleZ
                0x00000000008076d0                Pshuttle_door_lZ
                0x0000000000808300                Pshuttle_door_rZ
                0x0000000000809000                PsilencerZ
                0x00000000008091a0                Psilo_lift_doorZ
                0x00000000008093e0                PsilotopdoorZ
                0x00000000008096d0                PskorpionmagZ
                0x0000000000809830                PspectremagZ
                0x00000000008099a0                PspeedboatZ
                0x000000000080a6e0                Pst_pete_room_1iZ
                0x000000000080d820                Pst_pete_room_2iZ
                0x0000000000810a00                Pst_pete_room_3tZ
                0x0000000000813940                Pst_pete_room_5cZ
                0x0000000000816ed0                Pst_pete_room_6cZ
                0x000000000081a2e0                Psteel_door1Z
                0x000000000081a550                Psteel_door2Z
                0x000000000081a800                Psteel_door2bZ
                0x000000000081aad0                Psteel_door3Z
                0x000000000081ada0                Pstool1Z
                0x000000000081b060                Pswipe_card2Z
                0x000000000081b1f0                Pswivel_chair1Z
                0x000000000081b480                PtankZ
                0x000000000081cf20                PtigerZ
                0x000000000081edb0                Ptorpedo_rackZ
                0x000000000081f630                Ptrain_door2Z
                0x000000000081fa00                Ptrain_door3Z
                0x000000000081fe20                Ptrain_doorZ
                0x0000000000820090                PtrainextdoorZ
                0x00000000008203d0                Ptt33magZ
                0x0000000000820510                Ptuning_console1Z
                0x0000000000820a30                Ptv1Z
                0x0000000000820c00                Ptv4screenZ
                0x0000000000820da0                Ptv_holderZ
                0x0000000000821470                PtvscreenZ
                0x0000000000821540                PuzimagZ
                0x0000000000821680                PvertdoorZ
                0x0000000000821c90                PwalletbondZ
                0x0000000000823240                PwindowZ
                0x0000000000823330                Pwindow_cor11Z
                0x0000000000823410                Pwindow_lib_lg1Z
                0x00000000008234f0                Pwindow_lib_sm1Z
                0x00000000008235e0                Pwood_lg_crate1Z
                0x0000000000823860                Pwood_lg_crate2Z
                0x0000000000823a80                Pwood_md_crate3Z
                0x0000000000823ca0                Pwood_sm_crate4Z
                0x0000000000823f00                Pwood_sm_crate5Z
                0x0000000000824160                Pwood_sm_crate6Z
                0x0000000000824380                Pwooden_table1Z
                0x00000000008246f0                PwppkmagZ
                0x0000000000824830                Tbg_ame_all_p_stanZ
                0x0000000000826160                Tbg_arch_all_p_stanZ
                0x000000000082be50                Tbg_arec_all_p_stanZ
                0x00000000008341a0                Tbg_ark_all_p_stanZ
                0x000000000083d160                Tbg_ash_all_p_stanZ
                0x000000000083ea90                Tbg_azt_all_p_stanZ
                0x0000000000844010                Tbg_cat_all_p_stanZ
                0x0000000000846740                Tbg_cave_all_p_stanZ
                0x000000000084b630                Tbg_crad_all_p_stanZ
                0x000000000084df40                Tbg_cryp_all_p_stanZ
                0x0000000000850fb0                Tbg_dam_all_p_stanZ
                0x000000000085b390                Tbg_depo_all_p_stanZ
                0x00000000008622d0                Tbg_dest_all_p_stanZ
                0x0000000000868bc0                Tbg_dish_all_p_stanZ
                0x00000000008696d0                Tbg_imp_all_p_stanZ
                0x000000000086b000                Tbg_jun_all_p_stanZ
                0x0000000000872150                Tbg_len_all_p_stanZ
                0x0000000000872c10                Tbg_oat_all_p_stanZ
                0x0000000000874510                Tbg_pete_all_p_stanZ
                0x0000000000878ba0                Tbg_ref_all_p_stanZ
                0x000000000087a970                Tbg_run_all_p_stanZ
                0x000000000087c3f0                Tbg_sev_all_p_stanZ
                0x00000000008801c0                Tbg_sevb_all_p_stanZ
                0x0000000000885100                Tbg_sevx_all_p_stanZ
                0x000000000088e430                Tbg_silo_all_p_stanZ
                0x00000000008974d0                Tbg_stat_all_p_stanZ
                0x000000000089c390                Tbg_tra_all_p_stanZ
                0x000000000089e760                UbriefarchZ
                0x000000000089e780                UbriefarkZ
                0x000000000089e7a0                UbriefaztZ
                0x000000000089e7c0                UbriefcaveZ
                0x000000000089e7e0                UbriefcontrolZ
                0x000000000089e800                UbriefcradZ
                0x000000000089e820                UbriefcrypZ
                0x000000000089e840                UbriefdamZ
                0x000000000089e860                UbriefdepoZ
                0x000000000089e880                UbriefdestZ
                0x000000000089e8a0                UbriefjunZ
                0x000000000089e8c0                UbriefpeteZ
                0x000000000089e8e0                UbriefrunZ
                0x000000000089e900                UbriefsevbZ
                0x000000000089e920                UbriefsevbunkerZ
                0x000000000089e940                UbriefsevxZ
                0x000000000089e960                UbriefsevxbZ
                0x000000000089e980                UbriefsiloZ
                0x000000000089e9a0                UbriefstatueZ
                0x000000000089e9c0                UbrieftraZ
                0x000000000089e9e0                Ump_setupameZ
                0x000000000089f100                Ump_setuparchZ
                0x00000000008a1ea0                Ump_setuparkZ
                0x00000000008a3be0                Ump_setupashZ
                0x00000000008a42d0                Ump_setupcaveZ
                0x00000000008a6830                Ump_setupcradZ
                0x00000000008a7190                Ump_setupcrypZ
                0x00000000008a7ef0                Ump_setupdishZ
                0x00000000008a82e0                Ump_setupimpZ
                0x00000000008a8920                Ump_setupoatZ
                0x00000000008a8c70                Ump_setuprefZ
                0x00000000008a9080                Ump_setupsevbZ
                0x00000000008aa390                Ump_setupstatueZ
                0x00000000008ab210                UsetuparchZ
                0x00000000008af820                UsetuparkZ
                0x00000000008b33b0                UsetupaztZ
                0x00000000008b5cb0                UsetupcaveZ
                0x00000000008b9b10                UsetupcontrolZ
                0x00000000008bd610                UsetupcradZ
                0x00000000008bf240                UsetupcrypZ
                0x00000000008c10d0                UsetupdamZ
                0x00000000008c53a0                UsetupdepoZ
                0x00000000008c8330                UsetupdestZ
                0x00000000008ca680                UsetupjunZ
                0x00000000008cdd90                UsetuplenZ
                0x00000000008ce360                UsetuppeteZ
                0x00000000008d12e0                UsetuprunZ
                0x00000000008d2b40                UsetupsevbZ
                0x00000000008d5210                UsetupsevbunkerZ
                0x00000000008d6c40                UsetupsevxZ
                0x00000000008daf50                UsetupsevxbZ
                0x00000000008df040                UsetupsiloZ
                0x00000000008e1a90                UsetupstatueZ
                0x00000000008e4260                UsetuptraZ
                0x00000000008e7490                LameE
                0x00000000008e74a0                LameJ
                0x00000000008e74b0                LarchE
                0x00000000008e7ac0                LarchJ
                0x00000000008e8120                LarecE
                0x00000000008e86d0                LarecJ
                0x00000000008e8c60                LarkE
                0x00000000008e92e0                LarkJ
                0x00000000008e9990                LashE
                0x00000000008e99a0                LashJ
                0x00000000008e99b0                LaztE
                0x00000000008e9de0                LaztJ
                0x00000000008ea290                LcatE
                0x00000000008ea2a0                LcatJ
                0x00000000008ea2b0                LcaveE
                0x00000000008ea690                LcaveJ
                0x00000000008eaaf0                LcradE
                0x00000000008eafb0                LcradJ
                0x00000000008eb460                LcrypE
                0x00000000008eb6a0                LcrypJ
                0x00000000008eb960                LdamE
                0x00000000008ebd90                LdamJ
                0x00000000008ec200                LdepoE
                0x00000000008ec550                LdepoJ
                0x00000000008ec890                LdestE
                0x00000000008ecd10                LdestJ
                0x00000000008ed170                LdishE
                0x00000000008ed180                LdishJ
                0x00000000008ed190                LearE
                0x00000000008ed1a0                LearJ
                0x00000000008ed1b0                LeldE
                0x00000000008ed1c0                LeldJ
                0x00000000008ed1d0                LgunE
                0x00000000008ed7b0                LgunJ
                0x00000000008edf00                LimpE
                0x00000000008edf10                LimpJ
                0x00000000008edf20                LjunE
                0x00000000008ee420                LjunJ
                0x00000000008ee960                LleeE
                0x00000000008ee970                LleeJ
                0x00000000008ee980                LlenE
                0x00000000008eee90                LlenJ
                0x00000000008ef140                LlipE
                0x00000000008ef150                LlipJ
                0x00000000008ef160                LlueE
                0x00000000008ef170                LlueJ
                0x00000000008ef180                LmiscE
                0x00000000008ef3b0                LmiscJ
                0x00000000008ef690                LmpmenuE
                0x00000000008ef7d0                LmpmenuJ
                0x00000000008ef960                LmpweaponsE
                0x00000000008ef9e0                LmpweaponsJ
                0x00000000008efac0                LoatE
                0x00000000008efad0                LoatJ
                0x00000000008efae0                LoptionsE
                0x00000000008efc90                LoptionsJ
                0x00000000008efee0                LpamE
                0x00000000008efef0                LpamJ
                0x00000000008eff00                LpeteE
                0x00000000008f0360                LpeteJ
                0x00000000008f07d0                LpropobjE
                0x00000000008f09e0                LpropobjJ
                0x00000000008f0ca0                LrefE
                0x00000000008f0cb0                LrefJ
                0x00000000008f0cc0                LritE
                0x00000000008f0cd0                LritJ
                0x00000000008f0ce0                LrunE
                0x00000000008f0f40                LrunJ
                0x00000000008f11d0                LsevE
                0x00000000008f1710                LsevJ
                0x00000000008f1c20                LsevbE
                0x00000000008f2350                LsevbJ
                0x00000000008f2b40                LsevxE
                0x00000000008f2f80                LsevxJ
                0x00000000008f3340                LsevxbE
                0x00000000008f37b0                LsevxbJ
                0x00000000008f3c00                LshoE
                0x00000000008f3c10                LshoJ
                0x00000000008f3c20                LsiloE
                0x00000000008f41c0                LsiloJ
                0x00000000008f47a0                LstatE
                0x00000000008f50a0                LstatJ
                0x00000000008f5910                LtitleE
                0x00000000008f6180                LtitleJ
                0x00000000008f6d10                LtraE
                0x00000000008f7120                LtraJ
                0x00000000008f7540                LwaxE
                0x00000000008f7550                LwaxJ
                0x00000000008f7560                ob__ob_end_seg
                [0x0000000000be648a]                __romPos = (__romPos + SIZEOF (.ob_seg))

.images         0x00000000008f7df0   0x2eef20
 build/assets/images/images.o(.images)
 .images        0x00000000008f7df0   0x2eef20 build/assets/images/images.o
                0x00000000008f7df0                images
                0x0000000000be6d10                images_end
                [0x0000000000be648a]                __romPos = (__romPos + SIZEOF (.images))
                0x0000000000c00000                __csegtempPos = 0xc00000
                0x0000000080020d90                __ramPos = 0x80020d90

.reginfo        0x0000000000be6d10       0x18
 .reginfo       0x0000000000be6d10       0x18 build/rom_header.o

.rodata         0x0000000000be6d28        0x0
 .rodata        0x0000000000be6d28        0x0 build/_start.o
 .rodata        0x0000000000be6d28        0x0 build/rspboot.o
 .rodata        0x0000000000be6d28        0x0 build/gspboot.o

.rel.dyn        0x0000000000be6d28        0x0
 .rel.dyn       0x0000000000be6d28        0x0 build/video.o

.csegment       0x0000000080020d90    0x3c550 load address 0x0000000000c00000
 build/rspboot.o(.text)
 .text          0x0000000080020d90       0xd0 build/rspboot.o
                0x0000000080020d90                rspbootTextStart
 build/gspboot.o(.text)
 .text          0x0000000080020e60     0x1420 build/gspboot.o
                0x0000000080020e60                gsp3DTextStart
 build/aspboot.o(.text)
 .text          0x0000000080022280      0xe10 build/aspboot.o
                0x0000000080022280                aspMainTextStart
                0x0000000080023044                unknown_init_val
                0x0000000080023048                cart_hw_address
                0x000000008002304c                debug_handler_table
 build/boot.o(.data)
 build/init.o(.data)
 build/sched.o(.data)
 .data          0x0000000080023090       0x40 build/sched.o
                0x0000000080023090                stderr_unused
                0x0000000080023094                stderr_enabled
                0x0000000080023098                stderr_active
                0x000000008002309c                stderr_permitted
                0x00000000800230a0                userCompareValue
                0x00000000800230a4                currentcount
                0x00000000800230a8                setby_DPCfill_0
                0x00000000800230ac                setby_DPCfill_1
                0x00000000800230b0                something_with_osVI
                0x00000000800230cc                D_800230CC
 build/osMapTLB.o(.data)
 build/tlb_manage.o(.data)
 .data          0x00000000800230d0       0x10 build/tlb_manage.o
                0x00000000800230d0                maybe_cur_TLB_entries
                0x00000000800230d4                tlb_segment_num
 build/tlb_random.o(.data)
 .data          0x00000000800230e0       0x10 build/tlb_random.o
                0x00000000800230e0                tlb_random_seed
 build/tlb_resolve.o(.data)
 build/tlb_hardware.o(.data)
 build/audi.o(.data)
 .data          0x00000000800230f0       0xe0 build/audi.o
                0x00000000800230f0                D_800230F0
                0x00000000800230f4                audFrameCt
                0x00000000800230f8                nextDMA
                0x00000000800230fc                curAcmdList
                0x0000000080023100                D_80023100
                0x00000000800231c8                firstTime
 build/speed_graph.o(.data)
 .data          0x00000000800231d0       0x70 build/speed_graph.o
                0x00000000800231d0                D_800231D0
                0x00000000800231d4                D_800231D4
                0x0000000080023224                D_80023224
                0x0000000080023228                D_80023228
                0x000000008002322c                D_8002322C
                0x0000000080023230                counterforframes
                0x0000000080023234                D_80023234
 build/video.o(.data)
 .data          0x0000000080023240       0xa0 build/video.o
                0x0000000080023240                D_80023240
                0x0000000080023244                video1_settings
                0x0000000080023270                video2_settings
                0x000000008002329c                D_8002329C
                0x00000000800232a0                D_800232A0
                0x00000000800232a4                ptr_video_settings1
                0x00000000800232a8                ptr_video_settings2
                0x00000000800232ac                coloroutputmode
                0x00000000800232b0                D_800232B0
                0x00000000800232b4                D_800232B4
                0x00000000800232b8                D_800232B8
                0x00000000800232bc                D_800232BC
                0x00000000800232c0                D_800232C0
                0x00000000800232c4                jpg_16bit_grabnum
                0x00000000800232c8                jpg_32bit_grabnum
                0x00000000800232cc                rgb_16bit_grabnum
                0x00000000800232d0                rgb_32bit_grabnum
 build/deb.o(.data)
 .data          0x00000000800232e0       0x20 build/deb.o
                0x00000000800232e0                D_800232E0
                0x00000000800232e8                debug_notice_list
                0x00000000800232f8                debug_notice_list_data
 build/debug_stuff_split.o(.data)
 .data          0x0000000080023300      0xea0 build/debug_stuff_split.o
                0x0000000080023300                D_80023300
                0x0000000080023304                debug_processor_error_table
                0x00000000800236dc                stack_ptrs_1
                0x00000000800236f0                stack_ptrs_2
                0x0000000080023704                stack_ptrs_3
                0x0000000080023718                stderr_buffer
                0x0000000080024000                std_error_font_bitcode
                0x000000008002417c                ptr_videobuffer1
                0x0000000080024180                ptr_videobuffer2
                0x0000000080024184                padding_80024184
 build/debug_getlastRA.o(.data)
 build/ramrom.o(.data)
 build/boss.o(.data)
 .data          0x00000000800241a0      0x190 build/boss.o
                0x00000000800241a0                boss_c_ptr_debug_notice_list_entry
                0x00000000800241a4                debug_and_update_stage_flag
                0x00000000800241a8                current_stage_num
                0x00000000800241ac                current_m_malloc_value
                0x00000000800241b0                current_ma_malloc_value
                0x00000000800241b4                show_mem_use_flag
                0x00000000800241b8                show_mem_bars_flag
                0x00000000800241bc                memallocstringtable
                0x00000000800242fc                loadedstage
                0x0000000080024300                debug_feature_flag
                0x0000000080024304                D_80024304
                0x0000000080024308                D_80024308
                0x000000008002430c                D_8002430C
                0x0000000080024310                D_80024310
                0x0000000080024314                D_80024314
                0x0000000080024318                D_80024318
                0x000000008002431c                D_8002431C
                0x0000000080024320                D_80024320
                0x0000000080024324                taskgrab_ramdump_num
 build/music.o(.data)
 .data          0x0000000080024330       0xb0 build/music.o
                0x0000000080024330                music_unused
                0x0000000080024334                music1_track_num
                0x0000000080024338                music1len
                0x000000008002433c                music2_track_num
                0x0000000080024340                music2len
                0x0000000080024344                music3_track_num
                0x0000000080024348                music3len
                0x000000008002434c                music1_playing
                0x0000000080024350                music2_playing
                0x0000000080024354                music3_playing
                0x0000000080024358                music_array_tempo_maybe
                0x000000008002435c                music_related_array
 build/sfx.o(.data)
 .data          0x00000000800243e0       0x20 build/sfx.o
                0x00000000800243e0                sfx_unused
                0x00000000800243e4                D_800243E4
                0x00000000800243e8                D_800243E8
                0x00000000800243ec                D_800243EC
                0x00000000800243f0                D_800243F0
                0x00000000800243f4                D_800243F4
                0x00000000800243f8                bootswitch_sound
                0x00000000800243fc                F32_800243FC
 build/memp.o(.data)
 .data          0x0000000080024400       0x50 build/memp.o
                0x0000000080024400                ptr_memp_c_debug_debug_notice_list
                0x0000000080024404                tied_to_mem_management
                0x0000000080024414                D_80024414
                0x0000000080024418                D_80024418
                0x000000008002441c                D_8002441C
                0x0000000080024420                D_80024420
                0x0000000080024424                D_80024424
                0x0000000080024428                D_80024428
                0x000000008002442c                D_8002442C
                0x0000000080024430                D_80024430
                0x0000000080024434                D_80024434
                0x0000000080024438                D_80024438
                0x000000008002443c                D_8002443C
                0x0000000080024440                D_80024440
                0x0000000080024444                D_80024444
                0x0000000080024448                D_80024448
                0x000000008002444c                D_8002444C
 build/mema.o(.data)
 .data          0x0000000080024450       0x10 build/mema.o
                0x0000000080024450                ptr_mema_c_debug_notice_list
 build/random.o(.data)
 .data          0x0000000080024460       0x10 build/random.o
                0x0000000080024460                randseed
 build/token.o(.data)
 .data          0x0000000080024470       0x90 build/token.o
                0x0000000080024470                strstr_numstings
                0x0000000080024474                strstr_ptrcurrent_string
                0x0000000080024478                D_80024478
 build/stringhandler.o(.data)
 build/sprintf.o(.data)
 build/pi.o(.data)
 build/vi.o(.data)
 .data          0x0000000080024500      0xaa0 build/vi.o
                0x0000000080024500                ptr_vi_c_debug_debug_notice_list
 build/debugmenu.o(.data)
 .data          0x0000000080024fa0     0x1920 build/debugmenu.o
                0x0000000080024fa0                debug_menu_x_pos_offset
                0x0000000080024fa4                debug_menu_y_pos_offset
                0x0000000080024fa8                debug_menu_x_text_pos
                0x0000000080024fac                debug_menu_y_text_pos
                0x0000000080024fb0                stdout_display_list
                0x0000000080025030                stdout_debug_menu_screen_buffer
                0x0000000080026610                stdout_primary_color_table
                0x0000000080026710                stdout_environment_color_table
                0x0000000080026810                string_formatting
                0x0000000080026898                end_displaylist_command
                0x00000000800268a0                blank_C0_command
                0x00000000800268a8                stdout_primary_color
                0x00000000800268ac                debug_text_color
                0x00000000800268b0                debug_text_bg_color
                0x00000000800268b4                speedgraph_color
                0x00000000800268b8                D_800268B8
 build/joy.o(.data)
 .data          0x00000000800268c0       0xc0 build/joy.o
                0x00000000800268c0                D_800268C0
                0x00000000800268c4                ptr_current_point_in_controller_input_index
                0x00000000800268c8                D_800268C8
                0x00000000800268cc                D_800268CC
                0x00000000800268d0                num_controller_plugged_in_flags
                0x00000000800268d4                num_controller_plugged_in_flags_0
                0x00000000800268d8                controller_1_rumble_inserted
                0x00000000800268dc                controller_2_rumble_inserted
                0x00000000800268e0                controller_3_rumble_inserted
                0x00000000800268e4                controller_4_rumble_inserted
                0x00000000800268e8                controller_1_rumble_state
                0x00000000800268ec                controller_2_rumble_state
                0x00000000800268f0                controller_3_rumble_state
                0x00000000800268f4                controller_4_rumble_state
                0x00000000800268f8                controller_1_rumble_duration
                0x00000000800268fc                controller_2_rumble_duration
                0x0000000080026900                controller_3_rumble_duration
                0x0000000080026904                controller_4_rumble_duration
                0x0000000080026908                controller_1_rumble_pulse
                0x000000008002690c                controller_2_rumble_pulse
                0x0000000080026910                controller_3_rumble_pulse
                0x0000000080026914                controller_4_rumble_pulse
                0x0000000080026918                D_80026918
                0x000000008002691c                D_8002691C
                0x0000000080026920                D_80026920
                0x0000000080026924                disable_all_rumble
                0x0000000080026928                ptr_to_tlb_ramrom_record
                0x000000008002692c                D_8002692C
                0x0000000080026930                pl1_controller_failure_lr
                0x0000000080026934                pl2_controller_failure_lr
                0x0000000080026938                pl3_controller_failure_lr
                0x000000008002693c                pl4_controller_failure_lr
                0x0000000080026940                pl1_controller_failure_ud
                0x0000000080026944                pl2_controller_failure_ud
                0x0000000080026948                pl3_controller_failure_ud
                0x000000008002694c                pl4_controller_failure_ud
                0x0000000080026950                pl1_controller_failure_held
                0x0000000080026954                pl2_controller_failure_held
                0x0000000080026958                pl3_controller_failure_held
                0x000000008002695c                pl4_controller_failure_held
                0x0000000080026960                pl1_controller_failure_pressed
                0x0000000080026964                pl2_controller_failure_pressed
                0x0000000080026968                pl3_controller_failure_pressed
                0x000000008002696c                pl4_controller_failure_pressed
                0x0000000080026970                D_80026970
 build/joy_rumble.o(.data)
 build/rmon.o(.data)
 build/libultra/libultra.o(.data)
 .data          0x0000000080026980     0x1a50 build/libultra/libultra.o
                0x0000000080026980                osClockRate
                0x0000000080026988                __osShutdown
                0x000000008002698c                __OSGlobalIntMask
                0x0000000080026990                osDiskExist
                0x00000000800269a0                __osViDevMgr
                0x00000000800269a4                D_800269A4
                0x00000000800269a8                D_800269A8
                0x00000000800269ac                D_800269AC
                0x00000000800269b0                D_800269B0
                0x00000000800269b4                D_800269B4
                0x00000000800269b8                D_800269B8
                0x00000000800269c0                osViModeTable
                0x00000000800269c0                osViModeTable_osViModeNtscLpn1
                0x0000000080026a10                osViModeTable_osViModeNtscLpf1
                0x0000000080026a60                osViModeTable_osViModeNtscLan1
                0x0000000080026ab0                osViModeTable_osViModeNtscLaf1
                0x0000000080026b00                osViModeTable_osViModeNtscLpn2
                0x0000000080026b50                osViModeTable_osViModeNtscLpf2
                0x0000000080026ba0                osViModeTable_osViModeNtscLan2
                0x0000000080026bf0                osViModeTable_osViModeNtscLaf2
                0x0000000080026c40                osViModeTable_osViModeNtscHpn1
                0x0000000080026c90                osViModeTable_osViModeNtscHpf1
                0x0000000080026ce0                osViModeTable_osViModeNtscHan1
                0x0000000080026d30                osViModeTable_osViModeNtscHaf1
                0x0000000080026d80                osViModeTable_osViModeNtscHpn2
                0x0000000080026dd0                osViModeTable_osViModeNtscHpf2
                0x0000000080026e20                osViModeTable_osViModePalLpn1
                0x0000000080026e70                osViModeTable_osViModePalLpf1
                0x0000000080026ec0                osViModeTable_osViModePalLan1
                0x0000000080026f10                osViModeTable_osViModePalLaf1
                0x0000000080026f60                osViModeTable_osViModePalLpn2
                0x0000000080026fb0                osViModeTable_osViModePalLpf2
                0x0000000080027000                osViModeTable_osViModePalLan2
                0x0000000080027050                osViModeTable_osViModePalLaf2
                0x00000000800270a0                osViModeTable_osViModePalHpn1
                0x00000000800270f0                osViModeTable_osViModePalHpf1
                0x0000000080027140                osViModeTable_osViModePalHan1
                0x0000000080027190                osViModeTable_osViModePalHaf1
                0x00000000800271e0                osViModeTable_osViModePalHpn2
                0x0000000080027230                osViModeTable_osViModePalHpf2
                0x0000000080027280                osViModeTable_osViModeMpalLpn1
                0x00000000800272d0                osViModeTable_osViModeMpalLpf1
                0x0000000080027320                osViModeTable_osViModeMpalLan1
                0x0000000080027370                osViModeTable_osViModeMpalLaf1
                0x00000000800273c0                osViModeTable_osViModeMpalLpn2
                0x0000000080027410                osViModeTable_osViModeMpalLpf2
                0x0000000080027460                osViModeTable_osViModeMpalLan2
                0x00000000800274b0                osViModeTable_osViModeMpalLaf2
                0x0000000080027500                osViModeTable_osViModeMpalHpn1
                0x0000000080027550                osViModeTable_osViModeMpalHpf1
                0x00000000800275a0                osViModeTable_osViModeMpalHan1
                0x00000000800275f0                osViModeTable_osViModeMpalHaf1
                0x0000000080027640                osViModeTable_osViModeMpalHpn2
                0x0000000080027690                osViModeTable_osViModeMpalHpf2
                0x00000000800276e0                alGlobals
                0x00000000800276f0                B_800276F0
                0x0000000080027700                __osHwIntTable
                0x0000000080027720                __osThreadTail
                0x0000000080027728                __osRunQueue
                0x000000008002772c                __osActiveQueue
                0x0000000080027730                __osRunningThread
                0x0000000080027734                __osFaultedThread
                0x0000000080027740                spaces
                0x0000000080027764                zeros
                0x0000000080027790                __osPiDevMgr.active
                0x0000000080027790                __osPiDevMgr
                0x0000000080027794                __osPiDevMgr.thread
                0x0000000080027798                __osPiDevMgr.cmdQueue
                0x000000008002779c                __osPiDevMgr.evtQueue
                0x00000000800277a0                __osPiDevMgr.acsQueue
                0x00000000800277a4                __osPiDevMgr.dma
                0x00000000800277a8                __osPiDevMgr.edma
                0x00000000800277ac                __osPiTable
                0x00000000800277ac                D_800277AC
                0x00000000800277b0                __osContinitialized
                0x00000000800277c0                __osSiAccessQueueEnabled
                0x00000000800277d0                sin_table
                0x0000000080027fd0                __osTimerList
                0x0000000080027fe0                _libultraosviSegmentDataStart
                0x0000000080027fe0                vi
                0x0000000080028010                vi_buffer_next
                0x0000000080028040                __osViCurr
                0x0000000080028044                __osViNext
                0x0000000080028048                copy_osTvType
                0x000000008002804c                osViClock
                0x0000000080028050                SMALLROOM_PARAMS
                0x0000000080028050                _libultraosviSegmentDataEnd
                0x00000000800280b8                BIGROOM_PARAMS
                0x0000000080028140                ECHO_PARAMS
                0x0000000080028168                CHORUS_PARAMS
                0x0000000080028190                FLANGE_PARAMS
                0x00000000800281b8                NULL_PARAMS
                0x00000000800281e0                eqpower
                0x00000000800282e0                __osPiAccessQueueEnabled
                0x00000000800282f0                alowercase_hex_char
                0x0000000080028304                auppercase_hex_char
                0x0000000080028320                osViModeNtscLan1
                0x0000000080028370                osViModePalLan1
 build/aspboot.o(.rodata)
 .rodata        0x00000000800283d0       0x30 build/aspboot.o
                0x00000000800283d0                aBoot
                0x00000000800283d8                aRmon
                0x00000000800283e0                aIdle
                0x00000000800283e8                aShed
                0x00000000800283f0                aMain
                0x00000000800283f8                aAudi
 build/boot.o(.rodata)
 build/init.o(.rodata)
 build/sched.o(.rodata)
 .rodata        0x0000000080028400       0x20 build/sched.o
                0x0000000080028400                J_80028400
 build/osMapTLB.o(.rodata)
 build/tlb_manage.o(.rodata)
 build/tlb_random.o(.rodata)
 build/tlb_resolve.o(.rodata)
 build/tlb_hardware.o(.rodata)
 build/audi.o(.rodata)
 build/speed_graph.o(.rodata)
 .rodata        0x0000000080028420       0x60 build/speed_graph.o
                0x0000000080028420                aUtz2_0f
                0x0000000080028430                aRsp2_0f
                0x0000000080028440                aTex2_0f
                0x000000008002844c                a2dHz
                0x0000000080028454                a2dFrames
                0x0000000080028460                a2d
                0x0000000080028468                asc_D_80028468
                0x0000000080028470                aIL0
 build/video.o(.rodata)
 .rodata        0x0000000080028480      0x330 build/video.o
                0x0000000080028480                widths_80028480
                0x0000000080028488                heights_80028488
                0x0000000080028490                aGrab_D_jpeg_1
                0x00000000800284a0                aGrab_D_temp_uix
                0x00000000800284b4                aUix2pixGrab_D_temp_uix
                0x00000000800284d0                aFromaliasGrab_D_temp_pixGrab_D_tem
                0x00000000800284fc                aImgcopyFjfifGrab_D_temp_rgbGrab_D_
                0x000000008002852c                aRmGrab_D_temp_uixGrab_D_temp_pixGr
                0x0000000080028564                aImgviewGrab_D_jpeg
                0x000000008002857c                aGrab_D_jpeg
                0x000000008002858c                aGrab_D_temp_uix_0
                0x00000000800285a0                aUix2pixXsDGrab_D_temp_uix
                0x00000000800285c0                aFromaliasGrab_D_temp_pixGrab_D_t_0
                0x00000000800285ec                ::aImgcopyFjfifGrab_D_temp_rgbGrab(void)
                0x000000008002861c                aRmGrab_D_temp_uixGrab_D_temp_pix_0
                0x0000000080028654                aImgviewGrab_D_jpeg_0
                0x000000008002866c                aGrab_D_rgb
                0x0000000080028678                aGrab_D_temp_uix_1
                0x000000008002868c                aUix2pixGrab_D_temp_uix_0
                0x00000000800286a8                aFromaliasGrab_D_temp_pixGrab_D_rgb
                0x00000000800286d0                aRmGrab_D_temp_uixGrab_D_temp_pix
                0x00000000800286f8                aImgviewGrab_D_rgb
                0x000000008002870c                aGrab_D_rgb_0
                0x0000000080028718                aGrab_D_temp_uix_2
                0x000000008002872c                aUix2pixXsDGrab_D_temp_uix_0
                0x000000008002874c                aFromaliasGrab_D_temp_pixGrab_D_r_0
                0x0000000080028774                aRmGrab_D_temp_uixGrab_D_temp_pix_1
                0x000000008002879c                aImgviewGrab_D_rgb_0
 build/deb.o(.rodata)
 .rodata        0x00000000800287b0       0x10 build/deb.o
 build/debug_stuff_split.o(.rodata)
 .rodata        0x00000000800287c0      0x2b0 build/debug_stuff_split.o
 build/debug_getlastRA.o(.rodata)
 build/ramrom.o(.rodata)
 build/boss.o(.rodata)
 .rodata        0x0000000080028a70      0x6f0 build/boss.o
                0x00000000800290c0                aLevel_
                0x00000000800290c8                aMl0Me0Mgfx100Mvtx50Mt700Ma400_1
                0x00000000800290fc                aM
                0x0000000080029100                aM_1
                0x0000000080029104                ::aLevel(void)
                0x000000008002910c                aLevel__1
                0x0000000080029114                aHard
                0x000000008002911c                aHard_1
                0x0000000080029124                aHard_2
                0x000000008002912c                aMa
                0x0000000080029130                aMa_0
                0x0000000080029134                aU64_taskgrab_D_core
 build/music.o(.rodata)
 build/sfx.o(.rodata)
 .rodata        0x0000000080029160       0x40 build/sfx.o
                0x0000000080029160                J_80029160
 build/memp.o(.rodata)
 .rodata        0x00000000800291a0       0x30 build/memp.o
                0x00000000800291a0                aMemp_c_debug
                0x00000000800291b0                aMf
                0x00000000800291b4                aMf_0
                0x00000000800291b8                aMl
                0x00000000800291bc                aMl_0
                0x00000000800291c0                aMe
                0x00000000800291c4                aMe_0
 build/mema.o(.rodata)
 .rodata        0x00000000800291d0       0x20 build/mema.o
                0x00000000800291e0                aD_3
                0x00000000800291e4                a___
                0x00000000800291e8                aD_5
 build/random.o(.rodata)
 build/token.o(.rodata)
 .rodata        0x00000000800291f0       0x10 build/token.o
                0x00000000800291f0                str_empty
                0x00000000800291f4                aD_6
                0x00000000800291f8                aS_2
                0x00000000800291fc                aJ
 build/stringhandler.o(.rodata)
 build/sprintf.o(.rodata)
 build/pi.o(.rodata)
 build/vi.o(.rodata)
 .rodata        0x0000000080029200       0x10 build/vi.o
                0x0000000080029200                aVi_c_debug
 build/debugmenu.o(.rodata)
 .rodata        0x0000000080029210      0x180 build/debugmenu.o
 build/joy.o(.rodata)
 .rodata        0x0000000080029390       0x10 build/joy.o
                0x0000000080029390                aJoy_c_debug
 build/joy_rumble.o(.rodata)
 build/rmon.o(.rodata)
 build/libultra/libultra.o(.rodata)
 .rodata        0x00000000800293a0      0x9c0 build/libultra/libultra.o
                0x00000000800293a0                __osRcpImTable
                0x0000000080029420                F64_80029420
                0x0000000080029428                F64_80029428
                0x0000000080029430                F64_80029430
                0x0000000080029440                __osIntOffTable
                0x0000000080029460                __osIntTable
                0x0000000080029490                audio_related_jump_table_0
                0x0000000080029614                audio_related_jump_table_1
                0x0000000080029674                audio_related_jump_table_2
                0x00000000800296c4                F32_800296C4
                0x00000000800296d0                F64_800296D0
                0x00000000800296d8                F64_800296D8
                0x00000000800296e0                F32_800296E0
                0x00000000800296e4                F32_800296E4
                0x00000000800296f0                aHll
                0x00000000800296f4                printf_symbols
                0x00000000800296fc                byteshiftleft_lookup
                0x0000000080029714                J_80029714
                0x00000000800297f0                F32_800297F0
                0x0000000080029800                F64_80029800
                0x0000000080029810                F32_80029810
                0x0000000080029820                D_80029820
                0x0000000080029828                D_80029828
                0x0000000080029830                J_80019520
                0x0000000080029848                F64_80029848
                0x0000000080029850                J_8001A628
                0x0000000080029878                F64_80029878
                0x0000000080029890                aAssertionFaultSSLineD
                0x00000000800298bc                aSamples0
                0x00000000800298cc                aEnv_c
                0x00000000800298d4                aAssertionFaultSSLineD_0
                0x0000000080029900                aSamplesAl_max_rsp_samples
                0x0000000080029920                aEnv_c_0
                0x0000000080029928                aAssertionFaultSSLineD_1
                0x0000000080029954                aSource
                0x000000008002995c                aEnv_c_1
                0x0000000080029964                F32_80029964
                0x0000000080029968                J_8001AF6C
                0x00000000800299b0                F64_800299B0
                0x00000000800299b8                F64_800299B8
                0x00000000800299c0                F64_800299C0
                0x00000000800299c8                F64_800299C8
                0x00000000800299d0                F64_800299D0
                0x00000000800299d8                F64_800299D8
                0x00000000800299e0                F64_800299E0
                0x00000000800299e8                F64_800299E8
                0x00000000800299f0                F64_800299F0
                0x0000000080029a00                F64_80029A00
                0x0000000080029a08                F64_80029A08
                0x0000000080029a10                F64_80029A10
                0x0000000080029a18                F64_80029A18
                0x0000000080029a20                F64_80029A20
                0x0000000080029a28                F64_80029A28
                0x0000000080029a30                F64_80029A30
                0x0000000080029a38                F64_80029A38
                0x0000000080029a40                F64_80029A40
                0x0000000080029a50                jpt_8001C498
                0x0000000080029bd4                jpt_8001C98C
                0x0000000080029c28                jpt_8001CCD8
                0x0000000080029c88                F32_80029C88
                0x0000000080029c90                digits
                0x0000000080029cd8                aNan
                0x0000000080029cdc                aInf
                0x0000000080029ce0                asc_D_80029CE0
                0x0000000080029ce8                F64_80029CE8
                0x0000000080029cf0                jpt_8001E80C
                0x0000000080029d10                jpt_8001FFCC
                0x0000000080029d30                F64_80029D30
                0x0000000080029d38                F64_80029D38
                0x0000000080029d40                F64_80029D40
                0x0000000080029d50                F64_80029D50
                0x0000000080029d58                F64_80029D58
 build/game/initgamedata.o(.data)
 build/game/initweaponanigroups.o(.data)
 build/game/initactorpropstuff.o(.data)
 build/game/initnull_0009D0.o(.data)
 build/game/initunk_0009E0.o(.data)
 build/game/initanitable.o(.data)
 .data          0x0000000080029d60      0x300 build/game/initanitable.o
                0x0000000080029d60                D_80029D60
                0x0000000080029d6c                animation_table_ptrs1
                0x000000008002a04c                animation_table_ptrs2
 build/game/initunk_000B60.o(.data)
 build/game/setguscale.o(.data)
 build/game/initnull_000BC0.o(.data)
 build/game/initimages.o(.data)
 build/game/initintromatrices.o(.data)
 build/game/initmenus.o(.data)
 build/game/initguards.o(.data)
 build/game/deb_loadallmodels.o(.data)
 .data          0x000000008002a060      0x200 build/game/deb_loadallmodels.o
                0x000000008002a060                global_action_block_temp_buffer
                0x000000008002a23c                weapon_models_for_weapon_load
 build/game/initobjects.o(.data)
 .data          0x000000008002a260      0x170 build/game/initobjects.o
                0x000000008002a260                ptr_monitorimageobjectanimationcontroller
                0x000000008002a2d4                unknown_object_animation_controller
                0x000000008002a348                taser_object_animation_controller
                0x000000008002a3bc                unused_8002a3bc
                0x000000008002a3c0                scale_1_0_item_related
 build/game/prop.o(.data)
 build/game/objective.o(.data)
 build/game/ejectedcartridges.o(.data)
 build/game/initBondDATA.o(.data)
 .data          0x000000008002a3d0      0x3b0 build/game/initBondDATA.o
                0x000000008002a3d0                BONDdata_item_control_blocks_initdata
 build/game/initunk_005450.o(.data)
 build/game/initunk_005520.o(.data)
 build/game/initcameraandthrown.o(.data)
 .data          0x000000008002a780       0x10 build/game/initcameraandthrown.o
                0x000000008002a780                D_8002A780
                0x000000008002a784                D_8002A784
                0x000000008002a788                D_8002A788
 build/game/inititemslots.o(.data)
 build/game/initBondDATAdefaults.o(.data)
 .data          0x000000008002a790       0x40 build/game/initBondDATAdefaults.o
                0x000000008002a790                D_8002A790
 build/game/initpathtablesomething.o(.data)
 build/game/initpathtablelinks.o(.data)
 build/game/initexplosioncasing.o(.data)
 build/game/initunk_007180.o(.data)
 build/game/initunk_007290.o(.data)
 build/game/initunk_0072B0.o(.data)
 build/game/initmttex.o(.data)
 build/game/initunk_0073B0.o(.data)
 build/game/initunk_007460.o(.data)
 build/game/cleanup_alarms.o(.data)
 build/game/cleanup_objects.o(.data)
 build/game/cleanup_objectives.o(.data)
 build/game/cleanupSFXRelated.o(.data)
 build/game/playerstats_007770.o(.data)
 build/game/unk_007800.o(.data)
 build/game/unk_007920.o(.data)
 build/game/null_007970.o(.data)
 build/game/unk_007980.o(.data)
 build/game/intro_logos.o(.data)
 .data          0x000000008002a7d0       0xf0 build/game/intro_logos.o
                0x000000008002a7d0                D_8002A7D0
                0x000000008002a7d4                D_8002A7D4
                0x000000008002a7d8                D_8002A7D8
                0x000000008002a7dc                D_8002A7DC
                0x000000008002a7e0                D_8002A7E0
                0x000000008002a7e4                D_8002A7E4
                0x000000008002a7e8                D_8002A7E8
                0x000000008002a7ec                D_8002A7EC
                0x000000008002a7f0                D_8002A7F0
                0x000000008002a7f4                D_8002A7F4
                0x000000008002a7f8                D_8002A7F8
                0x000000008002a7fc                D_8002A7FC
                0x000000008002a800                D_8002A800
                0x000000008002a804                D_8002A804
                0x000000008002a808                D_8002A808
                0x000000008002a80c                D_8002A80C
                0x000000008002a810                D_8002A810
                0x000000008002a814                D_8002A814
                0x000000008002a818                D_8002A818
                0x000000008002a81c                D_8002A81C
                0x000000008002a820                D_8002A820
                0x000000008002a824                D_8002A824
                0x000000008002a828                D_8002A828
                0x000000008002a82c                D_8002A82C
                0x000000008002a830                D_8002A830
                0x000000008002a834                D_8002A834
                0x000000008002a838                D_8002A838
                0x000000008002a83c                D_8002A83C
                0x000000008002a840                D_8002A840
                0x000000008002a844                D_8002A844
                0x000000008002a848                D_8002A848
                0x000000008002a84c                D_8002A84C
                0x000000008002a850                D_8002A850
                0x000000008002a854                D_8002A854
                0x000000008002a858                D_8002A858
                0x000000008002a85c                D_8002A85C
                0x000000008002a860                D_8002A860
                0x000000008002a864                D_8002A864
                0x000000008002a868                D_8002A868
                0x000000008002a86c                D_8002A86C
                0x000000008002a870                D_8002A870
                0x000000008002a874                D_8002A874
                0x000000008002a878                D_8002A878
                0x000000008002a87c                D_8002A87C
                0x000000008002a880                D_8002A880
                0x000000008002a884                D_8002A884
                0x000000008002a888                D_8002A888
                0x000000008002a88c                D_8002A88C
                0x000000008002a890                D_8002A890
                0x000000008002a894                D_8002A894
                0x000000008002a898                D_8002A898
                0x000000008002a89c                D_8002A89C
                0x000000008002a8a0                intro_eye_counter
                0x000000008002a8a4                intro_state_blood_animation
                0x000000008002a8a8                D_8002A8A8
                0x000000008002a8ac                D_8002A8AC
                0x000000008002a8b0                D_8002A8B0
 build/game/mainmenu.o(.data)
 .data          0x000000008002a8c0     0x1240 build/game/mainmenu.o
                0x000000008002a8c0                current_menu
                0x000000008002a8c4                menu_update
                0x000000008002a8c8                maybe_prev_menu
                0x000000008002a8cc                menu_timer
                0x000000008002a8d0                tab_1_selected
                0x000000008002a8d4                tab_2_selected
                0x000000008002a8d8                tab_3_selected
                0x000000008002a8dc                tab_1_highlight
                0x000000008002a8e0                tab_2_highlight
                0x000000008002a8e4                tab_3_highlight
                0x000000008002a8e8                selected_folder_num
                0x000000008002a8ec                selected_folder_num_copy
                0x000000008002a8f0                gamemode
                0x000000008002a8f4                selected_stage
                0x000000008002a8f8                ptr_briefingdata
                0x000000008002a8fc                selected_difficulty
                0x000000008002a900                append_cheat_sp
                0x000000008002a904                append_cheat_mp
                0x000000008002a908                cursor_h_pos
                0x000000008002a90c                cursor_v_pos
                0x000000008002a910                final_menu_briefing_page
                0x000000008002a914                current_menu_briefing_page
                0x000000008002a918                folder_selection_screen_option_icon
                0x000000008002a91c                folder_selected_for_deletion
                0x000000008002a920                folder_selected_for_deletion_choice
                0x000000008002a924                mission_failed_or_aborted
                0x000000008002a928                mission_kia_flag
                0x000000008002a92c                is_first_time_on_legal_screen
                0x000000008002a930                is_first_time_on_main_menu
                0x000000008002a934                prev_keypresses
                0x000000008002a938                D_8002A938
                0x000000008002a93c                maybe_is_in_menu
                0x000000008002a940                screen_size
                0x000000008002a944                spectrum_related_flag
                0x000000008002a948                is_emulating_spectrum
                0x000000008002a94c                is_cheat_menu_available
                0x000000008002a950                ptr_logo_and_walletbond_DL
                0x000000008002a954                ptr_menu_videobuffer
                0x000000008002a958                something_legalscreen_constructor
                0x000000008002a95c                ptr_folder_object_instance
                0x000000008002a960                set0_never_used
                0x000000008002a964                set0_never_used_0
                0x000000008002a968                D_8002A968
                0x000000008002a96c                D_8002A96C
                0x000000008002a970                D_8002A970
                0x000000008002a974                D_8002A974
                0x000000008002a978                D_8002A978
                0x000000008002a97c                D_8002A97C
                0x000000008002a980                D_8002A980
                0x000000008002a984                D_8002A984
                0x000000008002a988                D_8002A988
                0x000000008002a98c                D_8002A98C
                0x000000008002a990                D_8002A990
                0x000000008002a994                D_8002A994
                0x000000008002a998                D_8002A998
                0x000000008002a99c                D_8002A99C
                0x000000008002a9a0                slider_007_mode_reaction
                0x000000008002a9a4                slider_007_mode_health
                0x000000008002a9a8                slider_007_mode_accuracy
                0x000000008002a9ac                slider_007_mode_damage
                0x000000008002a9b0                D_8002A9B0
                0x000000008002a9b4                D_8002A9B4
                0x000000008002a9b8                D_8002A9B8
                0x000000008002a9bc                D_8002A9BC
                0x000000008002a9c0                D_8002A9C0
                0x000000008002a9c4                D_8002A9C4
                0x000000008002a9c8                D_8002A9C8
                0x000000008002a9cc                D_8002A9CC
                0x000000008002aabc                D_8002AABC
                0x000000008002aac0                D_8002AAC0
                0x000000008002aac4                D_8002AAC4
                0x000000008002aac8                D_8002AAC8
                0x000000008002aacc                D_8002AACC
                0x000000008002aad0                D_8002AAD0
                0x000000008002aad4                D_8002AAD4
                0x000000008002aad8                D_8002AAD8
                0x000000008002aadc                D_8002AADC
                0x000000008002aae0                D_8002AAE0
                0x000000008002aae4                D_8002AAE4
                0x000000008002aae8                D_8002AAE8
                0x000000008002aaec                D_8002AAEC
                0x000000008002aaf0                D_8002AAF0
                0x000000008002aaf4                D_8002AAF4
                0x000000008002aaf8                D_8002AAF8
                0x000000008002aafc                D_8002AAFC
                0x000000008002ab00                D_8002AB00
                0x000000008002ab04                D_8002AB04
                0x000000008002ab08                D_8002AB08
                0x000000008002ab0c                D_8002AB0C
                0x000000008002ab10                D_8002AB10
                0x000000008002ab14                D_8002AB14
                0x000000008002ab18                D_8002AB18
                0x000000008002ab1c                D_8002AB1C
                0x000000008002ab20                D_8002AB20
                0x000000008002ab24                D_8002AB24
                0x000000008002ab28                D_8002AB28
                0x000000008002ab2c                D_8002AB2C
                0x000000008002ab30                D_8002AB30
                0x000000008002ab34                D_8002AB34
                0x000000008002ab38                D_8002AB38
                0x000000008002ab3c                D_8002AB3C
                0x000000008002ab40                D_8002AB40
                0x000000008002ab44                D_8002AB44
                0x000000008002ab48                D_8002AB48
                0x000000008002ab4c                D_8002AB4C
                0x000000008002ab50                D_8002AB50
                0x000000008002ab54                D_8002AB54
                0x000000008002ab58                D_8002AB58
                0x000000008002ab5c                D_8002AB5C
                0x000000008002ab60                D_8002AB60
                0x000000008002ab64                D_8002AB64
                0x000000008002ab68                D_8002AB68
                0x000000008002ab6c                D_8002AB6C
                0x000000008002ab70                D_8002AB70
                0x000000008002ab74                D_8002AB74
                0x000000008002ab78                D_8002AB78
                0x000000008002ab7c                D_8002AB7C
                0x000000008002ab80                D_8002AB80
                0x000000008002ab84                D_8002AB84
                0x000000008002ab88                D_8002AB88
                0x000000008002ab8c                D_8002AB8C
                0x000000008002ab90                D_8002AB90
                0x000000008002ab94                D_8002AB94
                0x000000008002ab98                D_8002AB98
                0x000000008002ab9c                D_8002AB9C
                0x000000008002aba0                D_8002ABA0
                0x000000008002aba4                D_8002ABA4
                0x000000008002aba8                D_8002ABA8
                0x000000008002abac                D_8002ABAC
                0x000000008002abb0                D_8002ABB0
                0x000000008002abb4                D_8002ABB4
                0x000000008002abb8                D_8002ABB8
                0x000000008002abbc                D_8002ABBC
                0x000000008002abc0                D_8002ABC0
                0x000000008002abc4                folder_option_COPY_left_bound
                0x000000008002abc8                folder_option_COPY_upper_bound
                0x000000008002abcc                folder_option_COPY_right_bound
                0x000000008002abd0                folder_option_COPY_lower_bound
                0x000000008002abd4                folder_option_ERASE_left_bound
                0x000000008002abd8                folder_option_ERASE_upper_bound
                0x000000008002abdc                folder_option_ERASE_right_bound
                0x000000008002abe0                folder_option_ERASE_lower_bound
                0x000000008002abe4                mission_folder_setup_entries
                0x000000008002af2c                unknown_folderselect_constructor
                0x000000008002af30                D_8002AF30
                0x000000008002af34                D_8002AF34
                0x000000008002af38                unknown_folderselect_constructor_0
                0x000000008002af3c                D_8002AF3C
                0x000000008002af40                D_8002AF40
                0x000000008002af44                unknown_folderselect
                0x000000008002af84                D_8002AF84
                0x000000008002afc0                D_8002AFC0
                0x000000008002afc4                D_8002AFC4
                0x000000008002afc8                D_8002AFC8
                0x000000008002afcc                D_8002AFCC
                0x000000008002afd0                cursor_xpos_table_mission_select
                0x000000008002afe4                cursor_ypos_table_mission_select
                0x000000008002aff4                multi_game_lengths
                0x000000008002b054                mp_player_counts
                0x000000008002b074                multi_stage_setups
                0x000000008002b194                num_chars_selectable_mp
                0x000000008002b198                mp_chr_setup
                0x000000008002b498                MP_handicap_table
                0x000000008002b4f0                MP_controller_configuration_table
                0x000000008002b510                D_8002B510
                0x000000008002b520                selected_num_players
                0x000000008002b524                player_1_char
                0x000000008002b528                player_2_char
                0x000000008002b52c                player_3_char
                0x000000008002b530                player_4_char
                0x000000008002b534                MP_stage_selected
                0x000000008002b538                game_length
                0x000000008002b53c                aim_sight_adjustment
                0x000000008002b540                scenario
                0x000000008002b544                unlock_stage_select
                0x000000008002b548                unlock_game_length
                0x000000008002b54c                unlock_chars
                0x000000008002b550                unlock_weapon_select
                0x000000008002b554                unlock_handicap
                0x000000008002b558                unlock_control_style
                0x000000008002b55c                unlock_aim_sight
                0x000000008002b560                D_8002B560
                0x000000008002b564                solo_target_time_array
                0x000000008002b5dc                D_8002B5DC
                0x000000008002b5e0                D_8002B5E0
                0x000000008002b5e4                MP_menu_selected_option
                0x000000008002b5e8                do_not_play_intro_movie
                0x000000008002b5ec                randomly_selected_intro_animation
                0x000000008002b5f0                intro_animation_count
                0x000000008002b5f4                objinstance
                0x000000008002b5f8                ptrobjinstance
                0x000000008002b5fc                full_actor_intro
                0x000000008002b600                intro_char_table
                0x000000008002b8bc                intro_animation_table
                0x000000008002ba2c                D_8002BA2C
                0x000000008002ba30                D_8002BA30
                0x000000008002ba34                D_8002BA34
                0x000000008002ba38                random_rifles_in_intro
                0x000000008002ba50                random_pistols_in_intro
                0x000000008002ba78                D_8002BA78
                0x000000008002ba7c                D_8002BA7C
                0x000000008002ba80                D_8002BA80
                0x000000008002ba84                D_8002BA84
                0x000000008002ba88                D_8002BA88
                0x000000008002ba8c                D_8002BA8C
                0x000000008002ba90                D_8002BA90
                0x000000008002ba94                D_8002BA94
                0x000000008002ba98                D_8002BA98
                0x000000008002ba9c                D_8002BA9C
                0x000000008002baa0                D_8002BAA0
                0x000000008002baa4                D_8002BAA4
                0x000000008002baa8                D_8002BAA8
                0x000000008002baac                D_8002BAAC
                0x000000008002bab0                D_8002BAB0
                0x000000008002bab4                D_8002BAB4
                0x000000008002bab8                D_8002BAB8
                0x000000008002babc                D_8002BABC
                0x000000008002bac0                D_8002BAC0
                0x000000008002bac4                D_8002BAC4
                0x000000008002bac8                D_8002BAC8
                0x000000008002bacc                D_8002BACC
                0x000000008002bad0                D_8002BAD0
                0x000000008002bad4                D_8002BAD4
                0x000000008002bad8                D_8002BAD8
                0x000000008002badc                D_8002BADC
                0x000000008002bae0                D_8002BAE0
                0x000000008002bae4                D_8002BAE4
                0x000000008002bae8                D_8002BAE8
                0x000000008002baec                D_8002BAEC
                0x000000008002baf0                color_palette_entries_50_percent
 build/game/unk_01B0E0.o(.data)
 build/game/unk_01B240.o(.data)
 .data          0x000000008002bb00       0x30 build/game/unk_01B240.o
                0x000000008002bb00                D_8002BB00
                0x000000008002bb04                D_8002BB04
                0x000000008002bb08                D_8002BB08
                0x000000008002bb0c                D_8002BB0C
                0x000000008002bb10                D_8002BB10
                0x000000008002bb14                D_8002BB14
                0x000000008002bb18                D_8002BB18
                0x000000008002bb1c                D_8002BB1C
                0x000000008002bb20                D_8002BB20
                0x000000008002bb24                D_8002BB24
                0x000000008002bb28                D_8002BB28
                0x000000008002bb2c                D_8002BB2C
 build/game/unk_01BAE0.o(.data)
 build/game/blood_animation.o(.data)
 .data          0x000000008002bb30      0x9e0 build/game/blood_animation.o
                0x000000008002bb30                die_blood_image_1
                0x000000008002c50c                D_8002C50C
 build/game/blood_decrypt.o(.data)
 build/game/eeprom.o(.data)
 .data          0x000000008002c510      0x3f0 build/game/eeprom.o
                0x000000008002c510                save1_selected_bond
                0x000000008002c514                save2_selected_bond
                0x000000008002c518                save3_selected_bond
                0x000000008002c51c                save4_selected_bond
                0x000000008002c520                D_8002C520
                0x000000008002c580                D_8002C580
                0x000000008002c5e0                D_8002C5E0
                0x000000008002c640                D_8002C640
                0x000000008002c6a0                filler_8002C6A0
                0x000000008002c6c0                D_8002C6C0
                0x000000008002c720                D_8002C720
                0x000000008002c780                D_8002C780
                0x000000008002c7e0                D_8002C7E0
                0x000000008002c840                D_8002C840
                0x000000008002c8a0                blank_eeprom
 build/game/actor.o(.data)
 .data          0x000000008002c900     0x4170 build/game/actor.o
                0x000000008002c900                animation_rate
                0x000000008002c904                D_8002C904
                0x000000008002c908                D_8002C908
                0x000000008002c90c                D_8002C90C
                0x000000008002c910                D_8002C910
                0x000000008002c914                D_8002C914
                0x000000008002c940                D_8002C940
                0x000000008002c96c                D_8002C96C
                0x000000008002c998                D_8002C998
                0x000000008002c9c4                D_8002C9C4
                0x000000008002c9f0                D_8002C9F0
                0x000000008002ca1c                D_8002CA1C
                0x000000008002ca48                D_8002CA48
                0x000000008002ca74                D_8002CA74
                0x000000008002caa0                D_8002CAA0
                0x000000008002cacc                D_8002CACC
                0x000000008002caf8                D_8002CAF8
                0x000000008002cb24                D_8002CB24
                0x000000008002cb50                D_8002CB50
                0x000000008002cb7c                D_8002CB7C
                0x000000008002cba8                D_8002CBA8
                0x000000008002cbd4                D_8002CBD4
                0x000000008002cc00                D_8002CC00
                0x000000008002cc2c                D_8002CC2C
                0x000000008002cc58                D_8002CC58
                0x000000008002cc5c                show_patrols_flag
                0x000000008002cc60                player1_guardID
                0x000000008002cc64                ptr_guard_data
                0x000000008002cc68                num_guards
                0x000000008002cc6c                D_8002CC6C
                0x000000008002cca8                D_8002CCA8
                0x000000008002ccac                D_8002CCAC
                0x000000008002ccb0                D_8002CCB0
                0x000000008002ccb4                D_8002CCB4
                0x000000008002ccb8                D_8002CCB8
                0x000000008002ccbc                D_8002CCBC
                0x000000008002ccc0                D_8002CCC0
                0x000000008002ccf8                D_8002CCF8
                0x000000008002ccfc                D_8002CCFC
                0x000000008002cd00                num_bodies
                0x000000008002cd04                num_male_heads
                0x000000008002cd08                num_female_heads
                0x000000008002cd0c                list_of_bodies
                0x000000008002cdb8                random_male_heads
                0x000000008002ce20                random_female_heads
                0x000000008002ce34                current_random_body
                0x000000008002ce38                current_random_male_head
                0x000000008002ce3c                current_random_female_head
                0x000000008002ce40                ai_accuracy_modifier
                0x000000008002ce44                ai_damage_modifier
                0x000000008002ce48                ai_health_modifier
                0x000000008002ce4c                ai_reaction_speed
                0x000000008002ce50                setting_007_5
                0x000000008002ce54                D_8002CE54
                0x000000008002cee0                D_8002CEE0
                0x000000008002cf6c                D_8002CF6C
                0x000000008002d014                D_8002D014
                0x000000008002d0a0                D_8002D0A0
                0x000000008002d12c                D_8002D12C
                0x000000008002d1d4                D_8002D1D4
                0x000000008002d3b0                D_8002D3B0
                0x000000008002d6dc                D_8002D6DC
                0x000000008002d768                D_8002D768
                0x000000008002d7f4                D_8002D7F4
                0x000000008002d880                D_8002D880
                0x000000008002d90c                D_8002D90C
                0x000000008002d998                D_8002D998
                0x000000008002da24                D_8002DA24
                0x000000008002dce0                D_8002DCE0
                0x000000008002debc                D_8002DEBC
                0x000000008002df10                D_8002DF10
                0x000000008002df64                D_8002DF64
                0x000000008002dfb8                D_8002DFB8
                0x000000008002e028                D_8002E028
                0x000000008002e07c                D_8002E07C
                0x000000008002e0d0                D_8002E0D0
                0x000000008002e140                D_8002E140
                0x000000008002e23c                D_8002E23C
                0x000000008002e300                D_8002E300
                0x000000008002e354                D_8002E354
                0x000000008002e3a8                D_8002E3A8
                0x000000008002e418                D_8002E418
                0x000000008002e46c                D_8002E46C
                0x000000008002e4c0                D_8002E4C0
                0x000000008002e530                D_8002E530
                0x000000008002e5bc                D_8002E5BC
                0x000000008002e648                D_8002E648
                0x000000008002e93c                expl_forward
                0x000000008002e944                expl_f_left
                0x000000008002e948                expl_f_right
                0x000000008002e94c                expl_left
                0x000000008002e950                expl_right
                0x000000008002e954                expl_back
                0x000000008002e958                expl_b_right
                0x000000008002e95c                expl_b_left
                0x000000008002e960                explosion_animation_table
                0x000000008002e9a0                rifle_firing_animation_group1
                0x000000008002ea30                ptr_rifle_firing_animation_group1
                0x000000008002ea38                rifle_firing_animation_group2
                0x000000008002eb10                ptr_rifle_firing_animation_group2
                0x000000008002eb18                rifle_firing_animation_group5
                0x000000008002ebf0                ptr_rifle_firing_animation_group5
                0x000000008002ebf8                rifle_firing_animation_group3
                0x000000008002ec88                ptr_rifle_firing_animation_group3
                0x000000008002ec90                rifle_firing_animation_group4
                0x000000008002ed20                ptr_rifle_firing_animation_group4
                0x000000008002ed28                ptr_rifle_firing_animation_groups
                0x000000008002eda8                pistol_firing_animation_group1
                0x000000008002ef10                ptr_pistol_firing_animation_group1
                0x000000008002ef18                pistol_firing_animation_group2
                0x000000008002eff0                ptr_pistol_firing_animation_group2
                0x000000008002eff8                pistol_firing_animation_group3
                0x000000008002f160                ptr_pistol_firing_animation_group3
                0x000000008002f168                pistol_firing_animation_group6
                0x000000008002f2d0                ptr_pistol_firing_animation_group6
                0x000000008002f2d8                pistol_firing_animation_group4
                0x000000008002f368                ptr_pistol_firing_animation_group4
                0x000000008002f370                pistol_firing_animation_group5
                0x000000008002f400                ptr_pistol_firing_animation_group5
                0x000000008002f408                ptr_pistol_firing_animation_groups
                0x000000008002f488                doubles_firing_animation_group1
                0x000000008002f518                ptr_doubles_firing_animation_group1
                0x000000008002f520                doubles_firing_animation_group2
                0x000000008002f5f8                ptr_doubles_firing_animation_group2
                0x000000008002f600                doubles_firing_animation_group3
                0x000000008002f6d8                ptr_doubles_firing_animation_group3
                0x000000008002f6e0                ptr_doubles_firing_animation_groups
                0x000000008002f760                crouched_rifle_firing_animation_group1
                0x000000008002f7a8                crouched_rifle_firing_animation_groupA
                0x000000008002f838                ptr_crouched_rifle_firing_animation_group1
                0x000000008002f840                crouched_rifle_firing_animation_group2
                0x000000008002f8d0                ptr_crouched_rifle_firing_animation_group2
                0x000000008002f8d8                crouched_rifle_firing_animation_group3
                0x000000008002f968                ptr_crouched_rifle_firing_animation_group3
                0x000000008002f970                ptr_crouched_rifle_firing_animation_groups
                0x000000008002f9f0                crouched_pistol_firing_animation_group1
                0x000000008002fac8                ptr_crouched_pistol_firing_animation_group1
                0x000000008002fad0                crouched_pistol_firing_animation_group2
                0x000000008002fbf0                ptr_crouched_pistol_firing_animation_group2
                0x000000008002fbf8                crouched_pistol_firing_animation_group3
                0x000000008002fcd0                ptr_crouched_pistol_firing_animation_group3
                0x000000008002fcd8                ptr_crouched_pistol_firing_animation_groups
                0x000000008002fd58                crouched_doubles_firing_animation_group1
                0x000000008002fe30                ptr_crouched_doubles_firing_animation_group1
                0x000000008002fe38                crouched_doubles_firing_animation_group2
                0x000000008002ff10                ptr_crouched_doubles_firing_animation_group2
                0x000000008002ff18                crouched_doubles_firing_animation_group3
                0x000000008002fff0                ptr_crouched_doubles_firing_animation_group3
                0x000000008002fff8                ptr_crouched_doubles_firing_animation_groups
                0x0000000080030078                D_80030078
                0x00000000800300c0                D_800300C0
                0x0000000080030108                D_80030108
                0x0000000080030150                D_80030150
                0x0000000080030198                D_80030198
                0x00000000800301e0                D_800301E0
                0x0000000080030228                D_80030228
                0x0000000080030270                D_80030270
                0x00000000800302b8                D_800302B8
                0x0000000080030300                D_80030300
                0x0000000080030348                D_80030348
                0x0000000080030390                D_80030390
                0x00000000800303d8                D_800303D8
                0x0000000080030420                D_80030420
                0x0000000080030468                D_80030468
                0x00000000800304b0                D_800304B0
                0x00000000800304f8                D_800304F8
                0x0000000080030540                D_80030540
                0x0000000080030588                D_80030588
                0x00000000800305d0                D_800305D0
                0x0000000080030618                D_80030618
                0x0000000080030660                D_80030660
                0x00000000800306a8                D_800306A8
                0x00000000800306f0                D_800306F0
                0x0000000080030738                D_80030738
                0x0000000080030780                D_80030780
                0x00000000800307c8                D_800307C8
                0x0000000080030810                D_80030810
                0x0000000080030858                D_80030858
                0x00000000800308a0                D_800308A0
                0x00000000800308e8                D_800308E8
                0x0000000080030930                D_80030930
                0x0000000080030978                objectiveregisters1
                0x000000008003097c                objectiveregisters2
                0x0000000080030980                objectiveregisters3
                0x0000000080030984                D_80030984
                0x0000000080030988                D_80030988
                0x000000008003098c                D_8003098C
                0x0000000080030990                D_80030990
                0x0000000080030994                D_80030994
                0x0000000080030998                D_80030998
                0x000000008003099c                D_8003099C
                0x00000000800309a0                D_800309A0
                0x00000000800309a4                D_800309A4
                0x00000000800309a8                D_800309A8
                0x00000000800309ac                D_800309AC
                0x00000000800309b0                D_800309B0
                0x00000000800309b4                D_800309B4
                0x00000000800309b8                D_800309B8
                0x00000000800309bc                D_800309BC
                0x00000000800309c0                D_800309C0
                0x00000000800309c4                D_800309C4
                0x00000000800309c8                D_800309C8
                0x00000000800309cc                D_800309CC
                0x00000000800309d0                D_800309D0
                0x00000000800309d4                D_800309D4
                0x00000000800309d8                D_800309D8
                0x00000000800309dc                D_800309DC
                0x00000000800309e0                D_800309E0
                0x00000000800309e4                D_800309E4
                0x00000000800309e8                D_800309E8
                0x00000000800309ec                D_800309EC
                0x00000000800309f0                D_800309F0
                0x00000000800309f4                D_800309F4
                0x00000000800309f8                male_guard_yelps
                0x0000000080030a2c                female_guard_yelps
                0x0000000080030a34                male_guard_yelp_counter
                0x0000000080030a38                female_guard_yelp_counter
                0x0000000080030a3c                metal_ricochet_SFX
                0x0000000080030a44                D_80030A44
                0x0000000080030a48                D_80030A48
                0x0000000080030a4c                D_80030A4C
                0x0000000080030a50                body_hit_SFX
                0x0000000080030a68                D_80030A68
 build/game/actionblock.o(.data)
 .data          0x0000000080030a70     0x1880 build/game/actionblock.o
                0x0000000080030a70                D_80030A70
                0x0000000080030a74                D_80030A74
                0x0000000080030a78                D_80030A78
                0x0000000080030a7c                D_80030A7C
                0x0000000080030a80                D_80030A80
                0x0000000080030a84                D_80030A84
                0x0000000080030a88                D_80030A88
                0x0000000080030a8c                D_80030A8C
                0x0000000080030a90                D_80030A90
                0x0000000080030a94                D_80030A94
                0x0000000080030a98                D_80030A98
                0x0000000080030a9c                D_80030A9C
                0x0000000080030aa0                ptr_obj_pos_list_current_entry
                0x0000000080030aa4                ptr_obj_pos_list_first_entry
                0x0000000080030aa8                ptr_obj_pos_list_final_entry
                0x0000000080030aac                difficulty
                0x0000000080030ab0                D_80030AB0
                0x0000000080030ab4                D_80030AB4
                0x0000000080030ab8                D_80030AB8
                0x0000000080030abc                D_80030ABC
                0x0000000080030ac0                alarm_timer
                0x0000000080030ac4                ptr_alarm_sfx
                0x0000000080030ac8                toxic_gas_sound_timer
                0x0000000080030acc                activate_gas_sound_timer
                0x0000000080030ad0                D_80030AD0
                0x0000000080030ad4                D_80030AD4
                0x0000000080030ad8                D_80030AD8
                0x0000000080030adc                D_80030ADC
                0x0000000080030ae0                D_80030AE0
                0x0000000080030ae4                D_80030AE4
                0x0000000080030ae8                clock_drawn_flag
                0x0000000080030aec                clock_enable
                0x0000000080030af0                clock_time
                0x0000000080030af4                D_80030AF4
                0x0000000080030af8                D_80030AF8
                0x0000000080030afc                D_80030AFC
                0x0000000080030b00                D_80030B00
                0x0000000080030b04                D_80030B04
                0x0000000080030b08                D_80030B08
                0x0000000080030b0c                D_80030B0C
                0x0000000080030b10                bodypartshot
                0x0000000080030b14                D_80030B14
                0x0000000080030b18                D_80030B18
                0x0000000080030b1c                D_80030B1C
                0x0000000080030b20                D_80030B20
                0x0000000080030b24                D_80030B24
                0x0000000080030b28                solo_ammo_multiplier
                0x0000000080030b2c                Throwing_knife_SFX
                0x0000000080030b34                D_80030B34
                0x0000000080030b74                monitor_animation_microcode
                0x0000000080030c00                D_80030C00
                0x0000000080030e24                D_80030E24
                0x0000000080030ec8                D_80030EC8
                0x0000000080030f44                D_80030F44
                0x0000000080031018                D_80031018
                0x0000000080031074                D_80031074
                0x00000000800310f0                D_800310F0
                0x000000008003118c                D_8003118C
                0x000000008003121c                D_8003121C
                0x0000000080031248                D_80031248
                0x0000000080031274                D_80031274
                0x00000000800312a0                D_800312A0
                0x00000000800312b4                D_800312B4
                0x00000000800312c8                D_800312C8
                0x00000000800312f4                D_800312F4
                0x0000000080031310                D_80031310
                0x0000000080031360                D_80031360
                0x0000000080031490                D_80031490
                0x00000000800314f8                D_800314F8
                0x000000008003156c                D_8003156C
                0x00000000800315cc                D_800315CC
                0x0000000080031848                D_80031848
                0x0000000080031898                D_80031898
                0x00000000800318b8                D_800318B8
                0x0000000080031918                D_80031918
                0x000000008003191c                D_8003191C
                0x000000008003194c                D_8003194C
                0x0000000080031950                D_80031950
                0x00000000800319c8                D_800319C8
                0x00000000800319d4                D_800319D4
                0x00000000800319f0                D_800319F0
                0x0000000080031a0c                D_80031A0C
                0x0000000080031a28                D_80031A28
                0x0000000080031a44                D_80031A44
                0x0000000080031a60                D_80031A60
                0x0000000080031a7c                D_80031A7C
                0x0000000080031a98                D_80031A98
                0x0000000080031ab4                D_80031AB4
                0x0000000080031ad0                D_80031AD0
                0x0000000080031aec                D_80031AEC
                0x0000000080031b10                D_80031B10
                0x0000000080031b24                D_80031B24
                0x0000000080031b38                D_80031B38
                0x0000000080031b4c                D_80031B4C
                0x0000000080031b60                D_80031B60
                0x0000000080031b68                D_80031B68
                0x0000000080031b74                D_80031B74
                0x0000000080031b80                D_80031B80
                0x0000000080031b8c                D_80031B8C
                0x0000000080031b98                D_80031B98
                0x0000000080031ba4                D_80031BA4
                0x0000000080031bb4                D_80031BB4
                0x0000000080031bd0                D_80031BD0
                0x0000000080031bec                D_80031BEC
                0x0000000080031c08                D_80031C08
                0x0000000080031c80                D_80031C80
                0x0000000080031d30                D_80031D30
                0x0000000080031d58                D_80031D58
                0x0000000080031da8                D_80031DA8
                0x0000000080031df4                D_80031DF4
                0x0000000080031e40                D_80031E40
                0x0000000080031e78                D_80031E78
                0x0000000080031eb0                D_80031EB0
                0x0000000080031ee8                D_80031EE8
                0x0000000080031f00                dword_D_80031F00
                0x0000000080031f44                dword_D_80031F44
                0x0000000080031fd0                D_80031FD0
                0x0000000080032010                D_80032010
                0x0000000080032014                D_80032014
                0x0000000080032018                D_80032018
                0x000000008003201c                D_8003201C
                0x0000000080032020                D_80032020
                0x0000000080032024                D_80032024
                0x0000000080032028                D_80032028
                0x000000008003202c                D_8003202C
                0x0000000080032030                D_80032030
                0x0000000080032034                D_80032034
                0x0000000080032038                D_80032038
                0x000000008003203c                D_8003203C
                0x0000000080032040                D_80032040
                0x0000000080032044                D_80032044
                0x0000000080032048                D_80032048
                0x000000008003204c                D_8003204C
                0x0000000080032050                D_80032050
                0x0000000080032054                D_80032054
                0x0000000080032058                D_80032058
                0x000000008003205c                D_8003205C
                0x0000000080032060                D_80032060
                0x0000000080032064                D_80032064
                0x0000000080032068                D_80032068
                0x000000008003206c                D_8003206C
                0x0000000080032070                D_80032070
                0x0000000080032074                D_80032074
                0x0000000080032078                D_80032078
                0x000000008003207c                D_8003207C
                0x0000000080032080                D_80032080
                0x0000000080032084                D_80032084
                0x0000000080032088                D_80032088
                0x000000008003208c                D_8003208C
                0x0000000080032090                D_80032090
                0x0000000080032094                blank_07_object
                0x000000008003210c                D_8003210C
                0x0000000080032114                blank_11_object
                0x000000008003218c                D_8003218C
                0x0000000080032194                blank_08_object_preset_1
                0x0000000080032218                D_80032218
                0x000000008003221c                blank_08_object_preset_4001
                0x00000000800322a0                D_800322A0
                0x00000000800322a4                D_800322A4
                0x00000000800322a8                D_800322A8
                0x00000000800322b0                D_800322B0
                0x00000000800322c0                D_800322C0
 build/game/loadobjectmodel.o(.data)
 build/game/objective_status.o(.data)
 .data          0x00000000800322f0       0x20 build/game/objective_status.o
                0x00000000800322f0                num_objective_ptrs
                0x0000000080032300                D_80032300
                0x0000000080032304                D_80032304
                0x0000000080032308                D_80032308
 build/game/sin.o(.data)
 build/game/unk_057FD0.o(.data)
 .data          0x0000000080032310       0x10 build/game/unk_057FD0.o
                0x0000000080032310                D_80032310
                0x0000000080032314                D_80032314
 build/game/unk_05A9E0.o(.data)
 build/game/convertangleusinginverse.o(.data)
 build/game/unk_05AB70.o(.data)
 .data          0x0000000080032320      0x110 build/game/unk_05AB70.o
                0x0000000080032320                table_1
                0x000000008003239c                table_2
                0x000000008003241c                table_3
 build/game/unk_05ACB0.o(.data)
 build/game/unk_05AE00.o(.data)
 build/game/unk_05B1E0.o(.data)
 .data          0x0000000080032430       0x10 build/game/unk_05B1E0.o
                0x0000000080032430                D_80032430
                0x0000000080032434                D_80032434
 build/game/truncf.o(.data)
 build/game/unk_05C440.o(.data)
 build/game/bondview.o(.data)
 .data          0x0000000080032440     0x3c30 build/game/bondview.o
                0x0000000080032440                D_80032440
                0x0000000080032448                D_80032448
                0x0000000080032454                D_80032454
                0x0000000080032458                D_80032458
                0x000000008003245c                size_right_item_buffer
                0x0000000080032460                size_left_item_buffer
                0x0000000080032464                D_80032464
                0x000000008003246c                ejected_cartridge
                0x0000000080032494                stru_D_80032494
                0x0000000080032504                GfistZ_stats
                0x0000000080032574                GknifeZ_stats
                0x00000000800325e4                GthrowknifeZ_stats
                0x0000000080032654                GwppkZ_stats
                0x00000000800326c4                GwppksilZ_stats
                0x0000000080032734                Gtt33Z_stats
                0x00000000800327a4                GskorpianZ_stats
                0x0000000080032814                Gak47Z_stats
                0x0000000080032884                GuziZ_stats
                0x00000000800328f4                Gmp5kZ_stats
                0x0000000080032964                Gmp5ksilZ_stats
                0x00000000800329d4                GspectreZ_stats
                0x0000000080032a44                Gm16Z_stats
                0x0000000080032ab4                Gfnp90Z_stats
                0x0000000080032b24                GshotgunZ_stats
                0x0000000080032b94                GautoshotZ_stats
                0x0000000080032c04                GsniperrifleZ_stats
                0x0000000080032c74                GrugerZ_stats
                0x0000000080032ce4                GgoldengunZ_stats
                0x0000000080032d54                GsilverwppkZ_stats
                0x0000000080032dc4                GgoldwppkZ_stats
                0x0000000080032e34                GlaserZ_stats
                0x0000000080032ea4                GwatchlaserZ_stats
                0x0000000080032f14                GgrenadelaunchZ_stats
                0x0000000080032f84                GrocketlaunchZ_stats
                0x0000000080032ff4                GgrenadeZ_stats
                0x0000000080033064                GtimedmineZ_stats
                0x00000000800330d4                GproximitymineZ_stats
                0x0000000080033144                GremotemineZ_stats
                0x00000000800331b4                GtriggerZ_stats
                0x0000000080033224                GtaserZ_stats
                0x0000000080033294                GtankZ_stats
                0x0000000080033304                GbombcaseZ_stats
                0x0000000080033374                GplastiqueZ_stats
                0x00000000800333e4                GflarepistolZ_stats
                0x0000000080033454                GpitongunZ_stats
                0x00000000800334c4                GbugZ_stats
                0x0000000080033534                GmicrocameraZ_stats
                0x00000000800335a4                GwatchmagnetattractZ_stats
                0x0000000080033614                GgoldeneyekeyZ_stats
                0x0000000080033684                GcameraZ_stats
                0x00000000800336f4                Csuit_lf_handz_stats
                0x0000000080033764                GjoypadZ_stats
                0x00000000800337d4                stru_D_800337D4
                0x0000000080033844                stru_D_80033844
                0x00000000800338b4                stru_D_800338B4
                0x0000000080033924                gitem_structs
                0x0000000080034c9c                cartridges_eject
                0x0000000080034ca0                D_80034CA0
                0x0000000080034ca4                D_80034CA4
                0x0000000080034e0c                D_80034E0C
                0x0000000080034f74                D_80034F74
                0x000000008003504c                D_8003504C
                0x0000000080035124                D_80035124
                0x00000000800351fc                D_800351FC
                0x00000000800352d4                D_800352D4
                0x00000000800353ac                D_800353AC
                0x00000000800354a8                D_800354A8
                0x0000000080035610                D_80035610
                0x0000000080035778                D_80035778
                0x0000000080035904                D_80035904
                0x0000000080035a90                D_80035A90
                0x0000000080035b68                D_80035B68
                0x0000000080035c40                D_80035C40
                0x0000000080035c44                D_80035C44
                0x0000000080035c48                D_80035C48
                0x0000000080035c4c                D_80035C4C
                0x0000000080035c50                D_80035C50
                0x0000000080035c54                D_80035C54
                0x0000000080035c58                D_80035C58
                0x0000000080035c5c                D_80035C5C
                0x0000000080035c60                D_80035C60
                0x0000000080035c64                D_80035C64
                0x0000000080035c68                D_80035C68
                0x0000000080035c6c                D_80035C6C
                0x0000000080035c70                D_80035C70
                0x0000000080035c74                D_80035C74
                0x0000000080035c78                D_80035C78
                0x0000000080035c7c                D_80035C7C
                0x0000000080035c80                D_80035C80
                0x0000000080035c84                D_80035C84
                0x0000000080035c88                D_80035C88
                0x0000000080035c8c                D_80035C8C
                0x0000000080035c90                D_80035C90
                0x0000000080035c94                D_80035C94
                0x0000000080035c98                D_80035C98
                0x0000000080035c9c                D_80035C9C
                0x0000000080035ca0                D_80035CA0
                0x0000000080035ca4                D_80035CA4
                0x0000000080035ca8                D_80035CA8
                0x0000000080035cac                D_80035CAC
                0x0000000080035cb0                D_80035CB0
                0x0000000080035cb4                D_80035CB4
                0x0000000080035cb8                D_80035CB8
                0x0000000080035cbc                D_80035CBC
                0x0000000080035cc0                D_80035CC0
                0x0000000080035cc4                D_80035CC4
                0x0000000080035d00                D_80035D00
                0x0000000080035d04                D_80035D04
                0x0000000080035d44                D_80035D44
                0x0000000080035e04                D_80035E04
                0x0000000080035e28                D_80035E28
                0x0000000080035e2c                D_80035E2C
                0x0000000080035e30                D_80035E30
                0x0000000080035e34                D_80035E34
                0x0000000080035e38                D_80035E38
                0x0000000080035e3c                D_80035E3C
                0x0000000080035e84                D_80035E84
                0x0000000080035e88                D_80035E88
                0x0000000080035e8c                D_80035E8C
                0x0000000080035e90                D_80035E90
                0x0000000080035e94                D_80035E94
                0x0000000080035e98                D_80035E98
                0x0000000080035e9c                D_80035E9C
                0x0000000080035ea0                D_80035EA0
                0x0000000080035ea4                D_80035EA4
                0x0000000080035ea8                D_80035EA8
                0x0000000080035eac                D_80035EAC
                0x0000000080035eb0                D_80035EB0
                0x0000000080035eec                dword_D_80035EEC
                0x0000000080035ef0                ammo_related
                0x0000000080036060                D_80036060
 build/game/objecthandler.o(.data)
 .data          0x0000000080036070      0x3b0 build/game/objecthandler.o
                0x0000000080036070                D_80036070
                0x0000000080036074                D_80036074
                0x0000000080036078                D_80036078
                0x000000008003607c                D_8003607C
                0x0000000080036080                D_80036080
                0x0000000080036084                D_80036084
                0x0000000080036088                D_80036088
                0x000000008003608c                D_8003608C
                0x0000000080036090                D_80036090
                0x0000000080036094                D_80036094
                0x0000000080036098                D_80036098
                0x000000008003609c                D_8003609C
                0x00000000800360a0                D_800360A0
                0x00000000800360a4                D_800360A4
                0x00000000800360a8                D_800360A8
                0x00000000800360ac                D_800360AC
                0x00000000800360b0                D_800360B0
                0x00000000800360b4                D_800360B4
                0x00000000800360b8                D_800360B8
                0x00000000800360bc                D_800360BC
                0x00000000800360c0                D_800360C0
                0x00000000800360c4                D_800360C4
                0x00000000800360c8                D_800360C8
                0x00000000800360cc                D_800360CC
                0x00000000800360d0                D_800360D0
                0x00000000800360d4                D_800360D4
                0x00000000800360d8                D_800360D8
                0x00000000800360dc                D_800360DC
                0x00000000800360e0                D_800360E0
                0x00000000800360e4                D_800360E4
                0x00000000800360e8                D_800360E8
                0x00000000800360ec                D_800360EC
                0x00000000800360f0                D_800360F0
                0x00000000800360f4                D_800360F4
                0x00000000800360f8                D_800360F8
                0x00000000800360fc                D_800360FC
                0x0000000080036100                D_80036100
                0x0000000080036104                D_80036104
                0x0000000080036108                D_80036108
                0x000000008003610c                D_8003610C
                0x0000000080036110                D_80036110
                0x0000000080036114                D_80036114
                0x0000000080036118                D_80036118
                0x000000008003611c                D_8003611C
                0x0000000080036120                D_80036120
                0x0000000080036124                D_80036124
                0x0000000080036128                D_80036128
                0x000000008003612c                D_8003612C
                0x0000000080036130                D_80036130
                0x0000000080036134                D_80036134
                0x0000000080036138                D_80036138
                0x000000008003613c                D_8003613C
                0x0000000080036140                D_80036140
                0x0000000080036144                D_80036144
                0x0000000080036148                D_80036148
                0x000000008003614c                D_8003614C
                0x0000000080036150                D_80036150
                0x0000000080036154                D_80036154
                0x0000000080036158                D_80036158
                0x000000008003615c                D_8003615C
                0x0000000080036160                D_80036160
                0x0000000080036164                D_80036164
                0x0000000080036168                D_80036168
                0x000000008003616c                D_8003616C
                0x0000000080036170                D_80036170
                0x0000000080036174                D_80036174
                0x0000000080036178                D_80036178
                0x000000008003617c                D_8003617C
                0x0000000080036180                D_80036180
                0x0000000080036184                D_80036184
                0x0000000080036188                D_80036188
                0x000000008003618c                D_8003618C
                0x0000000080036190                D_80036190
                0x0000000080036194                D_80036194
                0x0000000080036198                D_80036198
                0x000000008003619c                D_8003619C
                0x00000000800361a0                D_800361A0
                0x00000000800361a4                D_800361A4
                0x00000000800361a8                D_800361A8
                0x00000000800361ac                D_800361AC
                0x00000000800361b0                D_800361B0
                0x00000000800361b4                D_800361B4
                0x00000000800361b8                D_800361B8
                0x00000000800361bc                D_800361BC
                0x00000000800361c0                D_800361C0
                0x00000000800361c4                D_800361C4
                0x00000000800361c8                D_800361C8
                0x00000000800361cc                D_800361CC
                0x00000000800361d0                D_800361D0
                0x00000000800361d4                D_800361D4
                0x00000000800361d8                D_800361D8
                0x00000000800361dc                D_800361DC
                0x00000000800361e0                D_800361E0
                0x00000000800361e4                D_800361E4
                0x00000000800361e8                D_800361E8
                0x00000000800361ec                D_800361EC
                0x00000000800361f0                D_800361F0
                0x00000000800361f4                D_800361F4
                0x00000000800361f8                D_800361F8
                0x00000000800361fc                D_800361FC
                0x0000000080036200                D_80036200
                0x0000000080036204                D_80036204
                0x0000000080036208                D_80036208
                0x000000008003620c                D_8003620C
                0x0000000080036210                D_80036210
                0x0000000080036214                D_80036214
                0x0000000080036218                D_80036218
                0x000000008003621c                D_8003621C
                0x0000000080036220                D_80036220
                0x0000000080036224                D_80036224
                0x0000000080036228                D_80036228
                0x000000008003622c                D_8003622C
                0x0000000080036230                D_80036230
                0x0000000080036234                D_80036234
                0x0000000080036238                D_80036238
                0x000000008003623c                D_8003623C
                0x0000000080036240                D_80036240
                0x0000000080036244                D_80036244
                0x0000000080036248                D_80036248
                0x000000008003624c                D_8003624C
                0x0000000080036250                D_80036250
                0x0000000080036254                D_80036254
                0x0000000080036258                D_80036258
                0x000000008003625c                D_8003625C
                0x0000000080036260                D_80036260
                0x0000000080036264                D_80036264
                0x0000000080036268                D_80036268
                0x000000008003626c                D_8003626C
                0x0000000080036270                D_80036270
                0x0000000080036274                D_80036274
                0x0000000080036278                D_80036278
                0x000000008003627c                D_8003627C
                0x0000000080036280                D_80036280
                0x0000000080036284                D_80036284
                0x0000000080036288                D_80036288
                0x000000008003628c                D_8003628C
                0x0000000080036290                D_80036290
                0x0000000080036294                D_80036294
                0x0000000080036298                D_80036298
                0x000000008003629c                D_8003629C
                0x00000000800362a0                D_800362A0
                0x00000000800362a4                D_800362A4
                0x00000000800362a8                D_800362A8
                0x00000000800362ac                D_800362AC
                0x00000000800362b0                D_800362B0
                0x00000000800362b4                D_800362B4
                0x00000000800362b8                D_800362B8
                0x00000000800362bc                D_800362BC
                0x00000000800362c0                D_800362C0
                0x00000000800362c4                D_800362C4
                0x00000000800362c8                D_800362C8
                0x00000000800362cc                D_800362CC
                0x00000000800362d0                D_800362D0
                0x00000000800362d4                D_800362D4
                0x00000000800362d8                D_800362D8
                0x00000000800362dc                D_800362DC
                0x00000000800362e0                D_800362E0
                0x00000000800362e4                D_800362E4
                0x00000000800362e8                D_800362E8
                0x00000000800362ec                D_800362EC
                0x00000000800362f0                D_800362F0
                0x00000000800362f4                D_800362F4
                0x00000000800362f8                D_800362F8
                0x00000000800362fc                D_800362FC
                0x0000000080036300                D_80036300
                0x0000000080036304                D_80036304
                0x0000000080036308                D_80036308
                0x000000008003630c                D_8003630C
                0x0000000080036310                D_80036310
                0x0000000080036314                D_80036314
                0x0000000080036318                D_80036318
                0x000000008003631c                D_8003631C
                0x00000000800363e0                D_800363E0
                0x00000000800363e4                D_800363E4
                0x00000000800363e8                D_800363E8
                0x00000000800363ec                D_800363EC
                0x00000000800363f0                D_800363F0
                0x00000000800363f4                D_800363F4
                0x00000000800363f8                D_800363F8
                0x00000000800363fc                D_800363FC
                0x0000000080036400                D_80036400
                0x0000000080036404                D_80036404
                0x0000000080036408                D_80036408
                0x000000008003640c                D_8003640C
                0x0000000080036410                D_80036410
                0x0000000080036414                D_80036414
                0x0000000080036418                D_80036418
                0x000000008003641c                D_8003641C
 build/game/objecthandler_2.o(.data)
 build/game/othermodemicrocode.o(.data)
 build/game/bond.o(.data)
 .data          0x0000000080036420      0x6b0 build/game/bond.o
                0x0000000080036420                D_80036420
                0x0000000080036424                camera_80036424
                0x0000000080036428                resolution
                0x000000008003642c                camera_8003642C
                0x0000000080036430                camera_80036430
                0x0000000080036434                camera_80036434
                0x0000000080036438                camera_80036438
                0x000000008003643c                D_8003643C
                0x0000000080036440                D_80036440
                0x0000000080036444                D_80036444
                0x0000000080036448                in_tank_flag
                0x000000008003644c                D_8003644C
                0x0000000080036450                D_80036450
                0x0000000080036454                D_80036454
                0x0000000080036458                SFX_80036458
                0x000000008003645c                SFX_8003645C
                0x0000000080036460                D_80036460
                0x0000000080036464                D_80036464
                0x0000000080036468                D_80036468
                0x000000008003646c                D_8003646C
                0x0000000080036470                D_80036470
                0x0000000080036474                D_80036474
                0x0000000080036478                D_80036478
                0x000000008003647c                D_8003647C
                0x0000000080036480                D_80036480
                0x0000000080036484                D_80036484
                0x0000000080036488                D_80036488
                0x000000008003648c                D_8003648C
                0x0000000080036490                D_80036490
                0x0000000080036494                cameramode
                0x0000000080036498                D_80036498
                0x000000008003649c                D_8003649C
                0x00000000800364a0                stop_time_flag
                0x00000000800364a4                D_800364A4
                0x00000000800364a8                D_800364A8
                0x00000000800364ac                D_800364AC
                0x00000000800364b0                D_800364B0
                0x00000000800364b4                disable_player_pickups_flag
                0x00000000800364b8                D_800364B8
                0x00000000800364bc                D_800364BC
                0x00000000800364c0                D_800364C0
                0x00000000800364c4                invisible_to_guards_flag
                0x00000000800364c8                obj_collision_flag
                0x00000000800364cc                D_800364CC
                0x00000000800364d0                D_800364D0
                0x00000000800364d4                D_800364D4
                0x00000000800364d8                D_800364D8
                0x000000008003650c                D_8003650C
                0x0000000080036510                D_80036510
                0x0000000080036514                D_80036514
                0x0000000080036518                stage_intro_anim_table
                0x00000000800365a8                watch_transition_time
                0x00000000800365ac                dummy_08_pp7_obj
                0x0000000080036630                D_80036630
                0x0000000080036634                D_80036634
                0x0000000080036794                D_80036794
                0x0000000080036798                D_80036798
                0x000000008003679c                D_8003679C
                0x00000000800367f4                D_800367F4
                0x00000000800367f8                D_800367F8
                0x00000000800367fc                D_800367FC
                0x0000000080036800                D_80036800
                0x0000000080036804                D_80036804
                0x0000000080036808                D_80036808
                0x000000008003680c                D_8003680C
                0x0000000080036810                D_80036810
                0x0000000080036814                D_80036814
                0x0000000080036818                D_80036818
                0x000000008003681c                D_8003681C
                0x0000000080036820                D_80036820
                0x0000000080036824                D_80036824
                0x0000000080036828                D_80036828
                0x000000008003682c                D_8003682C
                0x0000000080036830                D_80036830
                0x0000000080036834                D_80036834
                0x0000000080036838                D_80036838
                0x000000008003683c                D_8003683C
                0x0000000080036878                D_80036878
                0x000000008003687c                D_8003687C
                0x0000000080036880                D_80036880
                0x0000000080036884                D_80036884
                0x0000000080036888                D_80036888
                0x000000008003688c                D_8003688C
                0x0000000080036890                D_80036890
                0x0000000080036894                D_80036894
                0x0000000080036898                D_80036898
                0x000000008003689c                D_8003689C
                0x00000000800368a0                D_800368A0
                0x00000000800368a4                D_800368A4
                0x00000000800368a8                D_800368A8
                0x00000000800368ac                D_800368AC
                0x00000000800368b0                D_800368B0
                0x00000000800368b4                D_800368B4
                0x00000000800368b8                D_800368B8
                0x00000000800368d8                firing_animation_groups
                0x0000000080036ab8                D_80036AB8
                0x0000000080036abc                D_80036ABC
                0x0000000080036ac0                D_80036AC0
                0x0000000080036ac4                D_80036AC4
 build/game/unk_08DBB0.o(.data)
 .data          0x0000000080036ad0       0xa0 build/game/unk_08DBB0.o
                0x0000000080036ad0                D_80036AD0
                0x0000000080036ad4                D_80036AD4
                0x0000000080036ad8                D_80036AD8
                0x0000000080036adc                D_80036ADC
                0x0000000080036ae0                D_80036AE0
                0x0000000080036ae4                D_80036AE4
                0x0000000080036ae8                D_80036AE8
                0x0000000080036aec                D_80036AEC
                0x0000000080036af0                D_80036AF0
                0x0000000080036af4                D_80036AF4
                0x0000000080036af8                D_80036AF8
                0x0000000080036afc                D_80036AFC
                0x0000000080036b00                D_80036B00
                0x0000000080036b04                D_80036B04
                0x0000000080036b08                D_80036B08
                0x0000000080036b0c                D_80036B0C
                0x0000000080036b10                D_80036B10
                0x0000000080036b14                D_80036B14
                0x0000000080036b18                D_80036B18
                0x0000000080036b1c                D_80036B1C
                0x0000000080036b20                D_80036B20
                0x0000000080036b24                D_80036B24
                0x0000000080036b28                D_80036B28
                0x0000000080036b2c                D_80036B2C
                0x0000000080036b30                D_80036B30
                0x0000000080036b60                D_80036B60
                0x0000000080036b64                D_80036B64
                0x0000000080036b68                D_80036B68
                0x0000000080036b6c                D_80036B6C
 build/game/debugmenu_08FE00.o(.data)
 .data          0x0000000080036b70       0x30 build/game/debugmenu_08FE00.o
                0x0000000080036b70                highlighted_debug_option
                0x0000000080036b74                ptr_last_debuggrp_cutoff
                0x0000000080036b78                ptr_textptrs
                0x0000000080036b7c                ptr_positions
                0x0000000080036b80                number_groups
                0x0000000080036b84                ptr_groupings
                0x0000000080036b88                num_mcm_something
                0x0000000080036b8c                mcm_xoffset_multiplier
                0x0000000080036b90                mcm_yoffset_multiplier
 build/game/debugmenu_090490.o(.data)
 .data          0x0000000080036ba0      0x470 build/game/debugmenu_090490.o
                0x0000000080036ba0                D_80036BA0
                0x0000000080036ba4                mcm_column_groupings
                0x0000000080036bc8                mcm_onscreen_positions
                0x0000000080036e30                mcm_strings
                0x0000000080036f64                debug_render_raster
                0x0000000080036f68                debug_freeze_processing
                0x0000000080036f6c                debug_limit_controller_input
                0x0000000080036f70                debug_unknown
                0x0000000080036f74                memusage_display_flag
                0x0000000080036f78                debug_do_draw_bg
                0x0000000080036f7c                debug_do_draw_obj
                0x0000000080036f80                debug_unknown2
                0x0000000080036f84                debug_stanhit_flag
                0x0000000080036f88                debug_stanregion_flag
                0x0000000080036f8c                turbo_mode_flag
                0x0000000080036f90                debug_man_pos_flag
                0x0000000080036f94                debug_prroomloads_flag
                0x0000000080036f98                debug_joy2skyedit_flag
                0x0000000080036f9c                debug_joy2hitsedit_flag
                0x0000000080036fa0                debug_joy2detailedit_flag
                0x0000000080036fa4                debug_explosioninfo_flag
                0x0000000080036fa8                linemode_flag
                0x0000000080036fac                debug_007_unlock_flag
                0x0000000080036fb0                debug_enable_agent_levels_flag
                0x0000000080036fb4                debug_enable_all_levels_flag
                0x0000000080036fb8                debug_chrnum_flag
                0x0000000080036fbc                debug_gunwatchpos_flags
                0x0000000080036fc0                debug_profile_flag
                0x0000000080036fc4                debug_enable_taskgrab_flag
                0x0000000080036fc8                debug_testingmanpos_flag
                0x0000000080036fcc                debug_fast_bond_flag
                0x0000000080036fd0                debug_all_obj_complete_flag
                0x0000000080036fd4                debug_portal_flag
                0x0000000080036fd8                dword_D_80036FD8
                0x0000000080036fe8                dword_D_80036FE8
                0x0000000080036ff8                show_debug_menu_flag
                0x0000000080036ffc                grab_rgb_screenshot_flag
                0x0000000080037000                grab_jpeg_screenshot_flag
                0x0000000080037004                D_80037004
                0x0000000080037008                D_80037008
                0x000000008003700c                D_8003700C
 build/game/unk_091080.o(.data)
 .data          0x0000000080037010       0x60 build/game/unk_091080.o
                0x0000000080037010                D_80037010
                0x0000000080037014                D_80037014
                0x0000000080037018                D_80037018
                0x000000008003701c                D_8003701C
                0x0000000080037020                D_80037020
                0x0000000080037024                D_80037024
                0x0000000080037028                D_80037028
                0x000000008003702c                D_8003702C
                0x0000000080037030                D_80037030
                0x0000000080037034                D_80037034
                0x0000000080037038                D_80037038
                0x000000008003703c                D_8003703C
                0x0000000080037040                D_80037040
                0x0000000080037044                D_80037044
                0x0000000080037048                D_80037048
                0x000000008003704c                D_8003704C
                0x0000000080037050                D_80037050
                0x0000000080037054                D_80037054
                0x0000000080037058                D_80037058
                0x000000008003705c                D_8003705C
                0x0000000080037060                D_80037060
                0x0000000080037064                D_80037064
                0x0000000080037068                D_80037068
 build/game/cheat_buttons_objectrelated.o(.data)
 .data          0x0000000080037070     0x8c50 build/game/cheat_buttons_objectrelated.o
                0x0000000080037070                dword_D_80037070
                0x000000008003707c                dword_D_8003707C
                0x0000000080037084                dword_D_80037084
                0x00000000800370dc                dword_D_800370DC
                0x000000008003713c                dword_D_8003713C
                0x000000008003717c                dword_D_8003717C
                0x00000000800371b4                dword_D_800371B4
                0x000000008003720c                dword_D_8003720C
                0x0000000080037224                dword_D_80037224
                0x0000000080037248                dword_D_80037248
                0x0000000080037250                dword_D_80037250
                0x0000000080037280                dword_D_80037280
                0x00000000800372d0                dword_D_800372D0
                0x00000000800372e0                dword_D_800372E0
                0x00000000800373d0                dword_D_800373D0
                0x00000000800373e0                dword_D_800373E0
                0x00000000800373e8                dword_D_800373E8
                0x0000000080037444                dword_D_80037444
                0x000000008003744c                D_8003744C
                0x00000000800374dc                D_800374DC
                0x00000000800374e4                setup_text_pointers
                0x00000000800375d0                Palarm1z_header
                0x00000000800375f0                Palarm2Z_header
                0x0000000080037610                PexplosionbitZ_header
                0x0000000080037630                Pammo_crate1Z_header
                0x0000000080037650                Pammo_crate2Z_header
                0x0000000080037670                Pammo_crate3Z_header
                0x0000000080037690                Pammo_crate4Z_header
                0x00000000800376b0                Pammo_crate5Z_header
                0x00000000800376d0                Pbin1Z_header
                0x00000000800376f0                Pblotter1Z_header
                0x0000000080037710                Pbook1Z_header
                0x0000000080037730                Pbookshelf1Z_header
                0x0000000080037750                Pbridge_console1aZ_header
                0x0000000080037770                Pbridge_console1bZ_header
                0x0000000080037790                Pbridge_console2aZ_header
                0x00000000800377b0                Pbridge_console2bZ_header
                0x00000000800377d0                Pbridge_console3aZ_header
                0x00000000800377f0                Pbridge_console3bZ_header
                0x0000000080037810                Pcard_box1Z_header
                0x0000000080037830                Pcard_box2Z_header
                0x0000000080037850                Pcard_box3Z_header
                0x0000000080037870                Pcard_box4_lgZ_header
                0x0000000080037890                Pcard_box5_lgZ_header
                0x00000000800378b0                Pcard_box6_lgZ_header
                0x00000000800378d0                PcctvZ_header
                0x00000000800378f0                Pconsole1Z_header
                0x0000000080037910                Pconsole2Z_header
                0x0000000080037930                Pconsole3Z_header
                0x0000000080037950                Pconsole_sevaZ_header
                0x0000000080037970                Pconsole_sevbZ_header
                0x0000000080037990                Pconsole_sevcZ_header
                0x00000000800379b0                Pconsole_sevdZ_header
                0x00000000800379d0                Pconsole_sev2aZ_header
                0x00000000800379f0                Pconsole_sev2bZ_header
                0x0000000080037a10                Pconsole_sev2cZ_header
                0x0000000080037a30                Pconsole_sev2dZ_header
                0x0000000080037a50                Pconsole_sev_GEaZ_header
                0x0000000080037a70                Pconsole_sev_GEbZ_header
                0x0000000080037a90                Pdesk1Z_header
                0x0000000080037ab0                Pdesk2Z_header
                0x0000000080037ad0                Pdesk_lamp2Z_header
                0x0000000080037af0                Pdisc_readerZ_header
                0x0000000080037b10                Pdisk_drive1Z_header
                0x0000000080037b30                Pfiling_cabinet1Z_header
                0x0000000080037b50                Pjerry_can1Z_header
                0x0000000080037b70                Pkeyboard1Z_header
                0x0000000080037b90                Pkit_units1Z_header
                0x0000000080037bb0                Pletter_tray1Z_header
                0x0000000080037bd0                Pmainframe1Z_header
                0x0000000080037bf0                Pmainframe2Z_header
                0x0000000080037c10                Pmetal_chair1Z_header
                0x0000000080037c30                Pmetal_crate1Z_header
                0x0000000080037c50                Pmetal_crate2Z_header
                0x0000000080037c70                Pmetal_crate3Z_header
                0x0000000080037c90                Pmetal_crate4Z_header
                0x0000000080037cb0                Pmissile_rackZ_header
                0x0000000080037cd0                Pmissile_rack2Z_header
                0x0000000080037cf0                Poil_drum1Z_header
                0x0000000080037d10                Poil_drum2Z_header
                0x0000000080037d30                Poil_drum3Z_header
                0x0000000080037d50                Poil_drum5Z_header
                0x0000000080037d70                Poil_drum6Z_header
                0x0000000080037d90                Poil_drum7Z_header
                0x0000000080037db0                PpadlockZ_header
                0x0000000080037dd0                Pphone1Z_header
                0x0000000080037df0                Pradio_unit1Z_header
                0x0000000080037e10                Pradio_unit2Z_header
                0x0000000080037e30                Pradio_unit3Z_header
                0x0000000080037e50                Pradio_unit4Z_header
                0x0000000080037e70                Psat1_reflectZ_header
                0x0000000080037e90                PsatdishZ_header
                0x0000000080037eb0                PsatboxZ_header
                0x0000000080037ed0                Pstool1Z_header
                0x0000000080037ef0                Pswivel_chair1Z_header
                0x0000000080037f10                Ptorpedo_rackZ_header
                0x0000000080037f30                Ptv1Z_header
                0x0000000080037f50                Ptv_holderZ_header
                0x0000000080037f70                PtvscreenZ_header
                0x0000000080037f90                Ptv4screenZ_header
                0x0000000080037fb0                Pwood_lg_crate1Z_header
                0x0000000080037fd0                Pwood_lg_crate2Z_header
                0x0000000080037ff0                Pwood_md_crate3Z_header
                0x0000000080038010                Pwood_sm_crate4Z_header
                0x0000000080038030                Pwood_sm_crate5Z_header
                0x0000000080038050                Pwood_sm_crate6Z_header
                0x0000000080038070                Pwooden_table1Z_header
                0x0000000080038090                Pswipe_card2Z_header
                0x00000000800380b0                Pborg_crateZ_header
                0x00000000800380d0                Pboxes4x4Z_header
                0x00000000800380f0                Pboxes3x4Z_header
                0x0000000080038110                Pboxes2x4Z_header
                0x0000000080038130                Psec_panelZ_header
                0x0000000080038150                PICBM_noseZ_header
                0x0000000080038170                PICBMZ_header
                0x0000000080038190                Ptuning_console1Z_header
                0x00000000800381b0                Pdesk_arecibo1Z_header
                0x00000000800381d0                Plocker3Z_header
                0x00000000800381f0                Plocker4Z_header
                0x0000000080038210                ProofgunZ_header
                0x0000000080038230                Pdest_engineZ_header
                0x0000000080038250                Pdest_exocetZ_header
                0x0000000080038270                Pdest_gunZ_header
                0x0000000080038290                Pdest_harpoonZ_header
                0x00000000800382b0                Pdest_seawolfZ_header
                0x00000000800382d0                PwindowZ_header
                0x00000000800382f0                Pwindow_lib_lg1Z_header
                0x0000000080038310                Pwindow_lib_sm1Z_header
                0x0000000080038330                Pwindow_cor11Z_header
                0x0000000080038350                Pjungle3_treeZ_header
                0x0000000080038370                PpalmZ_header
                0x0000000080038390                PpalmtreeZ_header
                0x00000000800383b0                Pplant2bZ_header
                0x00000000800383d0                PlabbenchZ_header
                0x00000000800383f0                PgasbarrelZ_header
                0x0000000080038410                PgasbarrelsZ_header
                0x0000000080038430                PbodyarmourZ_header
                0x0000000080038450                PbodyarmourvestZ_header
                0x0000000080038470                PgastankZ_header
                0x0000000080038490                Pglassware1Z_header
                0x00000000800384b0                PhatchboltZ_header
                0x00000000800384d0                PbrakeunitZ_header
                0x00000000800384f0                Pak47magZ_header
                0x0000000080038510                Pm16magZ_header
                0x0000000080038530                Pmp5kmagZ_header
                0x0000000080038550                PskorpionmagZ_header
                0x0000000080038570                PspectremagZ_header
                0x0000000080038590                PuzimagZ_header
                0x00000000800385b0                PsilencerZ_header
                0x00000000800385d0                PchrextinguisherZ_header
                0x00000000800385f0                PboxcartridgesZ_header
                0x0000000080038610                Pfnp90magZ_header
                0x0000000080038630                PgoldenshellsZ_header
                0x0000000080038650                PmagnumshellsZ_header
                0x0000000080038670                PwppkmagZ_header
                0x0000000080038690                Ptt33magZ_header
                0x00000000800386b0                Psev_doorZ_header
                0x00000000800386d0                Psev_door3Z_header
                0x00000000800386f0                Psev_door3_windZ_header
                0x0000000080038710                Psev_door4_windZ_header
                0x0000000080038730                Psev_trislideZ_header
                0x0000000080038750                Psev_door_v1Z_header
                0x0000000080038770                Psteel_door1Z_header
                0x0000000080038790                Psteel_door2Z_header
                0x00000000800387b0                Psteel_door3Z_header
                0x00000000800387d0                Psilo_lift_doorZ_header
                0x00000000800387f0                Psteel_door2bZ_header
                0x0000000080038810                Pdoor_roller1Z_header
                0x0000000080038830                Pdoor_roller2Z_header
                0x0000000080038850                Pdoor_roller3Z_header
                0x0000000080038870                Pdoor_roller4Z_header
                0x0000000080038890                Pdoor_st_arec1Z_header
                0x00000000800388b0                Pdoor_st_arec2Z_header
                0x00000000800388d0                Pdoor_dest1Z_header
                0x00000000800388f0                Pdoor_dest2Z_header
                0x0000000080038910                Pgas_plant_sw_do1Z_header
                0x0000000080038930                Pgas_plant_sw2_do1Z_header
                0x0000000080038950                Pgas_plant_sw3_do1Z_header
                0x0000000080038970                Pgas_plant_sw4_do1Z_header
                0x0000000080038990                Pgas_plant_met1_do1Z_header
                0x00000000800389b0                Pgas_plant_wc_cub1Z_header
                0x00000000800389d0                Pgasplant_clear_doorZ_header
                0x00000000800389f0                Ptrain_doorZ_header
                0x0000000080038a10                Ptrain_door2Z_header
                0x0000000080038a30                Ptrain_door3Z_header
                0x0000000080038a50                Pdoor_eyelidZ_header
                0x0000000080038a70                Pdoor_irisZ_header
                0x0000000080038a90                PsevdoorwoodZ_header
                0x0000000080038ab0                PsevdoorwindZ_header
                0x0000000080038ad0                PsevdoornowindZ_header
                0x0000000080038af0                PsevdoormetslideZ_header
                0x0000000080038b10                Pcryptdoor1aZ_header
                0x0000000080038b30                Pcryptdoor1bZ_header
                0x0000000080038b50                Pcryptdoor2aZ_header
                0x0000000080038b70                Pcryptdoor2bZ_header
                0x0000000080038b90                Pcryptdoor3Z_header
                0x0000000080038bb0                Pcryptdoor4Z_header
                0x0000000080038bd0                PvertdoorZ_header
                0x0000000080038bf0                PhatchdoorZ_header
                0x0000000080038c10                PdamgatedoorZ_header
                0x0000000080038c30                PdamtundoorZ_header
                0x0000000080038c50                PdamchaindoorZ_header
                0x0000000080038c70                PsilotopdoorZ_header
                0x0000000080038c90                Pdoorprison1Z_header
                0x0000000080038cb0                PdoorstatgateZ_header
                0x0000000080038cd0                PchrkalashZ_header
                0x0000000080038cf0                PchrgrenadelaunchZ_header
                0x0000000080038d10                PchrknifeZ_header
                0x0000000080038d30                PchrlaserZ_header
                0x0000000080038d50                Pchrm16Z_header
                0x0000000080038d70                Pchrmp5kZ_header
                0x0000000080038d90                PchrrugerZ_header
                0x0000000080038db0                PchrwppkZ_header
                0x0000000080038dd0                PchrshotgunZ_header
                0x0000000080038df0                PchrskorpionZ_header
                0x0000000080038e10                PchrspectreZ_header
                0x0000000080038e30                PchruziZ_header
                0x0000000080038e50                PchrgrenadeZ_header
                0x0000000080038e70                Pchrfnp90Z_header
                0x0000000080038e90                PchrbriefcaseZ_header
                0x0000000080038eb0                PchrremotemineZ_header
                0x0000000080038ed0                PchrproximitymineZ_header
                0x0000000080038ef0                PchrtimedmineZ_header
                0x0000000080038f10                PchrrocketZ_header
                0x0000000080038f30                PchrgrenaderoundZ_header
                0x0000000080038f50                PchrwppksilZ_header
                0x0000000080038f70                Pchrtt33Z_header
                0x0000000080038f90                Pchrmp5ksilZ_header
                0x0000000080038fb0                PchrautoshotZ_header
                0x0000000080038fd0                PchrgoldenZ_header
                0x0000000080038ff0                PchrthrowknifeZ_header
                0x0000000080039010                PchrsniperrifleZ_header
                0x0000000080039030                PchrrocketlaunchZ_header
                0x0000000080039050                PhatfurryZ_header
                0x0000000080039070                PhatfurrybrownZ_header
                0x0000000080039090                PhatfurryblackZ_header
                0x00000000800390b0                PhattbirdZ_header
                0x00000000800390d0                PhattbirdbrownZ_header
                0x00000000800390f0                PhathelmetZ_header
                0x0000000080039110                PhathelmetgreyZ_header
                0x0000000080039130                PhatmoonZ_header
                0x0000000080039150                PhatberetZ_header
                0x0000000080039170                PhatberetblueZ_header
                0x0000000080039190                PhatberetredZ_header
                0x00000000800391b0                PhatpeakedZ_header
                0x00000000800391d0                PchrwristdartZ_header
                0x00000000800391f0                PchrexplosivepenZ_header
                0x0000000080039210                PchrbombcaseZ_header
                0x0000000080039230                PchrflarepistolZ_header
                0x0000000080039250                PchrpitongunZ_header
                0x0000000080039270                PchrfingergunZ_header
                0x0000000080039290                PchrsilverwppkZ_header
                0x00000000800392b0                PchrgoldwppkZ_header
                0x00000000800392d0                PchrdynamiteZ_header
                0x00000000800392f0                PchrbungeeZ_header
                0x0000000080039310                PchrdoordecoderZ_header
                0x0000000080039330                PchrbombdefuserZ_header
                0x0000000080039350                PchrbugdetectorZ_header
                0x0000000080039370                PchrsafecrackercaseZ_header
                0x0000000080039390                PchrcameraZ_header
                0x00000000800393b0                PchrlockexploderZ_header
                0x00000000800393d0                PchrdoorexploderZ_header
                0x00000000800393f0                PchrkeyanalysercaseZ_header
                0x0000000080039410                PchrweaponcaseZ_header
                0x0000000080039430                PchrkeyyaleZ_header
                0x0000000080039450                PchrkeyboltZ_header
                0x0000000080039470                PchrbugZ_header
                0x0000000080039490                PchrmicrocameraZ_header
                0x00000000800394b0                PfloppyZ_header
                0x00000000800394d0                PchrgoldeneyekeyZ_header
                0x00000000800394f0                PchrpolarizedglassesZ_header
                0x0000000080039510                PchrcreditcardZ_header
                0x0000000080039530                PchrdarkglassesZ_header
                0x0000000080039550                PchrgaskeyringZ_header
                0x0000000080039570                PchrdatathiefZ_header
                0x0000000080039590                PsafeZ_header
                0x00000000800395b0                PbombZ_header
                0x00000000800395d0                PchrplansZ_header
                0x00000000800395f0                PchrspyfileZ_header
                0x0000000080039610                PchrblueprintsZ_header
                0x0000000080039630                PchrcircuitboardZ_header
                0x0000000080039650                PchrmapZ_header
                0x0000000080039670                PchrspooltapeZ_header
                0x0000000080039690                PchraudiotapeZ_header
                0x00000000800396b0                PchrmicrofilmZ_header
                0x00000000800396d0                PchrmicrocodeZ_header
                0x00000000800396f0                PchrlectreZ_header
                0x0000000080039710                PchrmoneyZ_header
                0x0000000080039730                PchrgoldbarZ_header
                0x0000000080039750                PchrheroinZ_header
                0x0000000080039770                PchrclipboardZ_header
                0x0000000080039790                PchrdossierredZ_header
                0x00000000800397b0                PchrstafflistZ_header
                0x00000000800397d0                PchrdattapeZ_header
                0x00000000800397f0                PchrplastiqueZ_header
                0x0000000080039810                PchrblackboxZ_header
                0x0000000080039830                PchrvideotapeZ_header
                0x0000000080039850                PnintendologoZ_header
                0x0000000080039870                PgoldeneyelogoZ_header
                0x0000000080039890                PwalletbondZ_header
                0x00000000800398b0                PmiltruckZ_header
                0x00000000800398d0                PjeepZ_header
                0x00000000800398f0                ParticZ_header
                0x0000000080039910                PhelicopterZ_header
                0x0000000080039930                PtigerZ_header
                0x0000000080039950                PmilcopterZ_header
                0x0000000080039970                PhindZ_header
                0x0000000080039990                PartictrailerZ_header
                0x00000000800399b0                PmotorbikeZ_header
                0x00000000800399d0                PtankZ_header
                0x00000000800399f0                PapcZ_header
                0x0000000080039a10                PspeedboatZ_header
                0x0000000080039a30                PplaneZ_header
                0x0000000080039a50                Pgun_runway1Z_header
                0x0000000080039a70                PsafedoorZ_header
                0x0000000080039a90                Pkey_holderZ_header
                0x0000000080039ab0                PhatchsevxZ_header
                0x0000000080039ad0                PsevdishZ_header
                0x0000000080039af0                Parchsecdoor1Z_header
                0x0000000080039b10                Parchsecdoor2Z_header
                0x0000000080039b30                PgroundgunZ_header
                0x0000000080039b50                PtrainextdoorZ_header
                0x0000000080039b70                PcarbmwZ_header
                0x0000000080039b90                PcarescortZ_header
                0x0000000080039bb0                PcargolfZ_header
                0x0000000080039bd0                PcarweirdZ_header
                0x0000000080039bf0                PcarzilZ_header
                0x0000000080039c10                Pshuttle_door_lZ_header
                0x0000000080039c30                Pshuttle_door_rZ_header
                0x0000000080039c50                Pdepot_gate_entryZ_header
                0x0000000080039c70                Pdepot_door_steelZ_header
                0x0000000080039c90                Pglassware2Z_header
                0x0000000080039cb0                Pglassware3Z_header
                0x0000000080039cd0                Pglassware4Z_header
                0x0000000080039cf0                PlandmineZ_header
                0x0000000080039d10                Pplant1Z_header
                0x0000000080039d30                Pplant11Z_header
                0x0000000080039d50                Pplant2Z_header
                0x0000000080039d70                Pplant3Z_header
                0x0000000080039d90                Pjungle5_treeZ_header
                0x0000000080039db0                PlegalpageZ_header
                0x0000000080039dd0                Pst_pete_room_1iZ_header
                0x0000000080039df0                Pst_pete_room_2iZ_header
                0x0000000080039e10                Pst_pete_room_3tZ_header
                0x0000000080039e30                Pst_pete_room_5cZ_header
                0x0000000080039e50                Pst_pete_room_6cZ_header
                0x0000000080039e70                Pdoor_rollertrainZ_header
                0x0000000080039e90                Pdoor_winZ_header
                0x0000000080039eb0                Pdoor_aztecZ_header
                0x0000000080039ed0                PshuttleZ_header
                0x0000000080039ef0                Pdoor_azt_deskZ_header
                0x0000000080039f10                Pdoor_azt_desk_topZ_header
                0x0000000080039f30                Pdoor_azt_chairZ_header
                0x0000000080039f50                Pdoor_mfZ_header
                0x0000000080039f70                PflagZ_header
                0x0000000080039f90                PbarricadeZ_header
                0x0000000080039fb0                PmodemboxZ_header
                0x0000000080039fd0                PdoorpanelZ_header
                0x0000000080039ff0                PdoorconsoleZ_header
                0x000000008003a010                PchrtesttubeZ_header
                0x000000008003a030                Pbollardz_header
                0x000000008003a050                word_D_8003A050
                0x000000008003a05c                prop_cctv_related
                0x000000008003a068                word_D_8003A068
                0x000000008003a070                prop_console_one_screen_related
                0x000000008003a07c                word_D_8003A07C
                0x000000008003a084                prop_console_four_screen_related
                0x000000008003a090                word_D_8003A090
                0x000000008003a0b0                prop_tv_holder_related
                0x000000008003a0bc                word_D_8003A0BC
                0x000000008003a0e0                prop_rotating_stuff_related
                0x000000008003a0ec                word_D_8003A0EC
                0x000000008003a100                prop_eyelid_door_related
                0x000000008003a10c                word_D_8003A10C
                0x000000008003a15c                prop_iris_door_related
                0x000000008003a168                word_D_8003A168
                0x000000008003a170                prop_walletbond_related
                0x000000008003a17c                word_D_8003A17C
                0x000000008003a19c                prop_car_related
                0x000000008003a1a8                word_D_8003A1A8
                0x000000008003a1c8                prop_flying_related
                0x000000008003a1d4                word_D_8003A1D4
                0x000000008003a1dc                prop_door_related
                0x000000008003a1e8                word_D_8003A1E8
                0x000000008003a208                item_tank_related
                0x000000008003a214                word_D_8003A214
                0x000000008003a21c                item_hat_related
                0x000000008003a228                PitemZ_entries
                0x000000008003b224                object_explosion_details
                0x000000008003c4d0                word_D_8003C4D0
                0x000000008003c4d8                model_object_standard_object
                0x000000008003c4e4                D_8003C4E4
                0x000000008003c4e8                D_8003C4E8
                0x000000008003c4ec                D_8003C4EC
                0x000000008003c4f0                word_D_8003C4F0
                0x000000008003c4fc                prop_weapon_related
                0x000000008003c508                D_8003C508
                0x000000008003c50c                D_8003C50C
                0x000000008003c510                dword_D_8003C510
                0x000000008003c570                dword_D_8003C570
                0x000000008003c57c                D_8003C57C
                0x000000008003c580                dword_D_8003C580
                0x000000008003c598                dword_D_8003C598
                0x000000008003c5b0                dword_D_8003C5B0
                0x000000008003c5c8                dword_D_8003C5C8
                0x000000008003c5e0                dword_D_8003C5E0
                0x000000008003c5f0                dword_D_8003C5F0
                0x000000008003c60c                dword_D_8003C60C
                0x000000008003c628                dword_D_8003C628
                0x000000008003c644                D_8003C644
                0x000000008003c648                D_8003C648
                0x000000008003c64c                D_8003C64C
                0x000000008003c650                player_gait_object
                0x000000008003c670                dword_D_8003C670
                0x000000008003c6e4                model_suit_lf_hand
                0x000000008003c6f0                dword_D_8003C6F0
                0x000000008003c714                weapon_gun_standard_gun
                0x000000008003c720                dword_D_8003C720
                0x000000008003c728                weapon_gun_unassigned
                0x000000008003c734                D_8003C734
                0x000000008003c738                D_8003C738
                0x000000008003c73c                D_8003C73C
                0x000000008003c740                dword_D_8003C740
                0x000000008003c76c                weapon_gun_revolver
                0x000000008003c778                D_8003C778
                0x000000008003c77c                D_8003C77C
                0x000000008003c780                dword_D_8003C780
                0x000000008003c7ac                weapon_gun_kf7
                0x000000008003c7b8                D_8003C7B8
                0x000000008003c7bc                D_8003C7BC
                0x000000008003c7c0                GwppkZ_struct
                0x000000008003c7e0                GwppksilZ_struct
                0x000000008003c800                Gtt33Z_struct
                0x000000008003c820                GskorpianZ_struct
                0x000000008003c840                Gak47Z_struct
                0x000000008003c860                GuziZ_struct
                0x000000008003c880                Gmp5kZ_struct
                0x000000008003c8a0                Gmp5ksilZ_struct
                0x000000008003c8c0                Gm16Z_struct
                0x000000008003c8e0                Gfnp90Z_struct
                0x000000008003c900                G8003C900_struct
                0x000000008003c920                GrugerZ_struct
                0x000000008003c940                GgoldengunZ_struct
                0x000000008003c960                GshotgunZ_struct
                0x000000008003c980                GautoshotZ_struct
                0x000000008003c9a0                GgrenadelaunchZ_struct
                0x000000008003c9c0                GspectreZ_struct
                0x000000008003c9e0                GlaserZ_struct
                0x000000008003ca00                GrocketlaunchZ_struct
                0x000000008003ca20                GknifeZ_header
                0x000000008003ca40                GthrowknifeZ_struct
                0x000000008003ca60                GtaserZ_struct
                0x000000008003ca80                GremotemineZ_struct
                0x000000008003caa0                GproximitymineZ_struct
                0x000000008003cac0                GtimedmineZ_struct
                0x000000008003cae0                GtriggerZ_struct
                0x000000008003cb00                GgrenadeZ_struct
                0x000000008003cb20                GfistZ_header
                0x000000008003cb40                GsniperrifleZ_struct
                0x000000008003cb60                GcartridgeZ_struct
                0x000000008003cb80                GcartrifleZ_struct
                0x000000008003cba0                GcartblueZ_struct
                0x000000008003cbc0                GcartshellZ_struct
                0x000000008003cbe0                GjoypadZ_struct
                0x000000008003cc00                G8003CC00_struct
                0x000000008003cc20                G8003CC20_struct
                0x000000008003cc40                GbombcaseZ_struct
                0x000000008003cc60                GflarepistolZ_struct
                0x000000008003cc80                GpitongunZ_struct
                0x000000008003cca0                G8003CCA0_struct
                0x000000008003ccc0                GsilverwppkZ_struct
                0x000000008003cce0                GgoldwppkZ_struct
                0x000000008003cd00                G8003CD00_struct
                0x000000008003cd20                GbungeeZ_struct
                0x000000008003cd40                GdoordecoderZ_struct
                0x000000008003cd60                GbombdefuserZ_struct
                0x000000008003cd80                GbugdetectorZ_struct
                0x000000008003cda0                GsafecrackercaseZ_struct
                0x000000008003cdc0                GcameraZ_struct
                0x000000008003cde0                GlockexploderZ_struct
                0x000000008003ce00                GdoorexploderZ_struct
                0x000000008003ce20                GkeyanalysercaseZ_struct
                0x000000008003ce40                GweaponcaseZ_struct
                0x000000008003ce60                GkeycardZ_struct
                0x000000008003ce80                GkeyyaleZ_struct
                0x000000008003cea0                GkeyboltZ_struct
                0x000000008003cec0                GbugZ_struct
                0x000000008003cee0                GmicrocameraZ_struct
                0x000000008003cf00                GexplosivefloppyZ_struct
                0x000000008003cf20                GgoldeneyekeyZ_struct
                0x000000008003cf40                GpolarizedglassesZ_struct
                0x000000008003cf60                GcreditcardZ_struct
                0x000000008003cf80                GdarkglassesZ_struct
                0x000000008003cfa0                GwatchidentifierZ_struct
                0x000000008003cfc0                GwatchcommunicatorZ_struct
                0x000000008003cfe0                GwatchlaserZ_struct
                0x000000008003d000                GwatchgeigercounterZ_struct
                0x000000008003d020                GwatchmagnetrepelZ_struct
                0x000000008003d040                GwatchmagnetattractZ_struct
                0x000000008003d060                GgaskeyringZ_struct
                0x000000008003d080                GdatathiefZ_struct
                0x000000008003d0a0                GbriefcaseZ_struct
                0x000000008003d0c0                GblackboxZ_struct
                0x000000008003d0e0                GplastiqueZ_struct
                0x000000008003d100                GvideotapeZ_struct
                0x000000008003d120                GclipboardZ_struct
                0x000000008003d140                GstafflistZ_struct
                0x000000008003d160                GdossierredZ_struct
                0x000000008003d180                GaudiotapeZ_struct
                0x000000008003d1a0                GdattapeZ_struct
                0x000000008003d1c0                GplansZ_struct
                0x000000008003d1e0                GspyfileZ_struct
                0x000000008003d200                GblueprintsZ_struct
                0x000000008003d220                GcircuitboardZ_struct
                0x000000008003d240                GmapZ_struct
                0x000000008003d260                GspooltapeZ_struct
                0x000000008003d280                GmicrofilmZ_struct
                0x000000008003d2a0                GmicrocodeZ_struct
                0x000000008003d2c0                GlectreZ_struct
                0x000000008003d2e0                GmoneyZ_struct
                0x000000008003d300                GgoldbarZ_struct
                0x000000008003d320                GheroinZ_struct
                0x000000008003d340                dword_D_8003D340
                0x000000008003d390                weapon_gun_controller
                0x000000008003d39c                D_8003D39C
                0x000000008003d3a0                dword_D_8003D3A0
                0x000000008003d400                model_guard_character
                0x000000008003d40c                D_8003D40C
                0x000000008003d410                CcamguardZ_struct
                0x000000008003d430                CgreyguardZ_struct
                0x000000008003d450                ColiveguardZ_struct
                0x000000008003d470                CrusguardZ_struct
                0x000000008003d490                CtrevguardZ_struct
                0x000000008003d4b0                CborisZ_struct
                0x000000008003d4d0                CorumovZ_struct
                0x000000008003d4f0                CtrevelyanZ_struct
                0x000000008003d510                CboilertrevZ_struct
                0x000000008003d530                CvalentinZ_struct
                0x000000008003d550                CxeniaZ_struct
                0x000000008003d570                CbaronsamediZ_struct
                0x000000008003d590                CjawsZ_struct
                0x000000008003d5b0                CmaydayZ_struct
                0x000000008003d5d0                CoddjobZ_struct
                0x000000008003d5f0                CnatalyaZ_struct
                0x000000008003d610                CarmourguardZ_struct
                0x000000008003d630                CcommguardZ_struct
                0x000000008003d650                CgreatguardZ_struct
                0x000000008003d670                CnavyguardZ_struct
                0x000000008003d690                CsnowguardZ_struct
                0x000000008003d6b0                CbluewomanZ_struct
                0x000000008003d6d0                CfattechwomanZ_struct
                0x000000008003d6f0                CtechwomanZ_struct
                0x000000008003d710                CjeanwomanZ_struct
                0x000000008003d730                CgreymanZ_struct
                0x000000008003d750                CbluemanZ_struct
                0x000000008003d770                CredmanZ_struct
                0x000000008003d790                CcardimanZ_struct
                0x000000008003d7b0                CcheckmanZ_struct
                0x000000008003d7d0                CtechmanZ_struct
                0x000000008003d7f0                CpilotZ_struct
                0x000000008003d810                Cgreatguard2Z_struct
                0x000000008003d830                CbluecamguardZ_struct
                0x000000008003d850                CmoonguardZ_struct
                0x000000008003d870                CmoonfemaleZ_struct
                0x000000008003d890                CboilerbondZ_struct
                0x000000008003d8b0                CsuitbondZ_struct
                0x000000008003d8d0                CtimberbondZ_struct
                0x000000008003d8f0                CsnowbondZ_struct
                0x000000008003d910                CdjbondZ_struct
                0x000000008003d930                Csuit_lf_handz_struct
                0x000000008003d950                CheadkarlZ_struct
                0x000000008003d970                CheadalanZ_struct
                0x000000008003d990                CheadpeteZ_struct
                0x000000008003d9b0                CheadmartinZ_struct
                0x000000008003d9d0                stru_D_8003D9D0
                0x000000008003d9f0                stru_D_8003D9F0
                0x000000008003da10                stru_D_8003DA10
                0x000000008003da30                stru_D_8003DA30
                0x000000008003da50                stru_D_8003DA50
                0x000000008003da70                stru_D_8003DA70
                0x000000008003da90                stru_D_8003DA90
                0x000000008003dab0                stru_D_8003DAB0
                0x000000008003dad0                stru_D_8003DAD0
                0x000000008003daf0                stru_D_8003DAF0
                0x000000008003db10                stru_D_8003DB10
                0x000000008003db30                stru_D_8003DB30
                0x000000008003db50                stru_D_8003DB50
                0x000000008003db70                stru_D_8003DB70
                0x000000008003db90                stru_D_8003DB90
                0x000000008003dbb0                stru_D_8003DBB0
                0x000000008003dbd0                stru_D_8003DBD0
                0x000000008003dbf0                stru_D_8003DBF0
                0x000000008003dc10                stru_D_8003DC10
                0x000000008003dc30                stru_D_8003DC30
                0x000000008003dc50                stru_D_8003DC50
                0x000000008003dc70                stru_D_8003DC70
                0x000000008003dc90                stru_D_8003DC90
                0x000000008003dcb0                stru_D_8003DCB0
                0x000000008003dcd0                stru_D_8003DCD0
                0x000000008003dcf0                stru_D_8003DCF0
                0x000000008003dd10                stru_D_8003DD10
                0x000000008003dd30                stru_D_8003DD30
                0x000000008003dd50                stru_D_8003DD50
                0x000000008003dd70                CheadbrosnansuitZ_struct
                0x000000008003dd90                CheadbrosnantimberZ_struct
                0x000000008003ddb0                CheadbrosnansnowZ_struct
                0x000000008003ddd0                CheadbrosnanZ_struct
                0x000000008003ddf0                CspicebondZ_struct
                0x000000008003de10                c_item_entries
                0x000000008003e450                D_8003E450
                0x000000008003e454                D_8003E454
                0x000000008003e458                D_8003E458
                0x000000008003e45c                D_8003E45C
                0x000000008003e460                D_8003E460
                0x000000008003e464                D_8003E464
                0x000000008003f430                dword_D_8003F430
                0x000000008003f444                dword_D_8003F444
                0x000000008003f458                dword_D_8003F458
                0x000000008003f46c                dword_D_8003F46C
                0x000000008003f480                dword_D_8003F480
                0x000000008003f494                dword_D_8003F494
                0x000000008003f4a8                dword_D_8003F4A8
                0x000000008003f4bc                dword_D_8003F4BC
                0x000000008003f4d0                dword_D_8003F4D0
                0x000000008003f4e4                dword_D_8003F4E4
                0x000000008003f4f8                dword_D_8003F4F8
                0x000000008003f50c                dword_D_8003F50C
                0x000000008003f520                dword_D_8003F520
                0x000000008003f534                dword_D_8003F534
                0x000000008003f548                dword_D_8003F548
                0x000000008003f55c                dword_D_8003F55C
                0x000000008003f570                dword_D_8003F570
                0x000000008003f584                dword_D_8003F584
                0x000000008003f598                dword_D_8003F598
                0x000000008003f5ac                dword_D_8003F5AC
                0x000000008003f5c0                dword_D_8003F5C0
                0x000000008003f5d4                dword_D_8003F5D4
                0x000000008003f5e8                dword_D_8003F5E8
                0x000000008003f5fc                dword_D_8003F5FC
                0x000000008003f610                dword_D_8003F610
                0x000000008003f624                dword_D_8003F624
                0x000000008003f638                dword_D_8003F638
                0x000000008003f64c                dword_D_8003F64C
                0x000000008003f660                dword_D_8003F660
                0x000000008003f67c                dword_D_8003F67C
                0x000000008003f690                dword_D_8003F690
                0x000000008003f6a4                dword_D_8003F6A4
                0x000000008003f6b8                dword_D_8003F6B8
                0x000000008003f6cc                dword_D_8003F6CC
                0x000000008003f6e0                dword_D_8003F6E0
                0x000000008003f6f4                dword_D_8003F6F4
                0x000000008003f708                dword_D_8003F708
                0x000000008003f71c                dword_D_8003F71C
                0x000000008003f730                dword_D_8003F730
                0x000000008003f744                dword_D_8003F744
                0x000000008003f758                dword_D_8003F758
                0x000000008003f76c                dword_D_8003F76C
                0x000000008003f780                dword_D_8003F780
                0x000000008003f794                dword_D_8003F794
                0x000000008003f7a8                dword_D_8003F7A8
                0x000000008003f7bc                dword_D_8003F7BC
                0x000000008003f7d0                dword_D_8003F7D0
                0x000000008003f7e4                dword_D_8003F7E4
                0x000000008003f7f8                dword_D_8003F7F8
                0x000000008003f804                D_8003F804
                0x000000008003f808                D_8003F808
                0x000000008003f80c                D_8003F80C
 build/game/unk_092890.o(.data)
 build/game/unk_092E50.o(.data)
 .data          0x000000008003fcc0      0x4a0 build/game/unk_092E50.o
                0x000000008003fcc0                MipMap2C_Something_Setup
                0x000000008003fd28                MipMap2C_Something2_Setup
                0x000000008003fd90                D_8003FD90
                0x000000008003fd94                D_8003FD94
                0x000000008003fda8                D_8003FDA8
 build/game/unk_093880.o(.data)
 build/game/unk_09B600.o(.data)
 build/game/unk_09B740.o(.data)
 .data          0x0000000080040160       0x10 build/game/unk_09B740.o
                0x0000000080040160                random_val
 build/game/unk_09B7A0.o(.data)
 build/game/unk_09C250.o(.data)
 .data          0x0000000080040170      0x7d0 build/game/unk_09C250.o
                0x0000000080040170                D_80040170
                0x0000000080040174                D_80040174
                0x0000000080040178                D_80040178
                0x000000008004017c                D_8004017C
                0x000000008004080c                D_8004080C
                0x000000008004090c                D_8004090C
                0x0000000080040910                D_80040910
                0x0000000080040914                D_80040914
                0x0000000080040918                D_80040918
                0x000000008004091c                D_8004091C
                0x0000000080040920                D_80040920
                0x0000000080040924                D_80040924
                0x0000000080040928                D_80040928
                0x000000008004092c                D_8004092C
                0x0000000080040930                D_80040930
                0x0000000080040934                D_80040934
                0x0000000080040938                D_80040938
                0x000000008004093c                D_8004093C
 build/game/unk_0A1DA0.o(.data)
 .data          0x0000000080040940       0x60 build/game/unk_0A1DA0.o
                0x0000000080040940                D_80040940
                0x0000000080040960                D_80040960
 build/game/watch.o(.data)
 .data          0x00000000800409a0      0x4e0 build/game/watch.o
                0x00000000800409a0                D_800409A0
                0x00000000800409a4                D_800409A4
                0x00000000800409a8                watch_soundrelated_maybe
                0x00000000800409ac                D_800409AC
                0x00000000800409b0                D_800409B0
                0x00000000800409b4                D_800409B4
                0x00000000800409b8                D_800409B8
                0x00000000800409bc                D_800409BC
                0x00000000800409c0                D_800409C0
                0x00000000800409c4                D_800409C4
                0x00000000800409c8                D_800409C8
                0x00000000800409cc                D_800409CC
                0x00000000800409d0                D_800409D0
                0x00000000800409d4                D_800409D4
                0x00000000800409d8                D_800409D8
                0x00000000800409dc                D_800409DC
                0x0000000080040a7c                D_80040A7C
                0x0000000080040a84                cur_player_look_vertical_inverted
                0x0000000080040a88                D_80040A88
                0x0000000080040a90                cur_player_autoaim_setting
                0x0000000080040a94                D_80040A94
                0x0000000080040a9c                cur_player_aim_control
                0x0000000080040aa0                D_80040AA0
                0x0000000080040aa8                cur_player_sight_onscreen
                0x0000000080040aac                D_80040AAC
                0x0000000080040ab4                cur_player_lookahead_setting
                0x0000000080040ab8                D_80040AB8
                0x0000000080040ac0                cur_player_ammo_onscreen_setting
                0x0000000080040ac4                D_80040AC4
                0x0000000080040acc                cur_player_screen_setting
                0x0000000080040ad0                D_80040AD0
                0x0000000080040ad8                screen_ratio
                0x0000000080040adc                controlstick_lr_enabled
                0x0000000080040ae0                D_80040AE0
                0x0000000080040ae4                D_80040AE4
                0x0000000080040ae8                D_80040AE8
                0x0000000080040aec                D_80040AEC
                0x0000000080040af0                D_80040AF0
                0x0000000080040af4                D_80040AF4
                0x0000000080040af8                D_80040AF8
                0x0000000080040afc                D_80040AFC
                0x0000000080040b00                D_80040B00
                0x0000000080040b04                D_80040B04
                0x0000000080040b08                D_80040B08
                0x0000000080040b0c                D_80040B0C
                0x0000000080040b10                D_80040B10
                0x0000000080040b14                D_80040B14
                0x0000000080040b18                D_80040B18
                0x0000000080040b1c                D_80040B1C
                0x0000000080040b20                D_80040B20
                0x0000000080040b24                D_80040B24
                0x0000000080040b28                D_80040B28
                0x0000000080040b2c                D_80040B2C
                0x0000000080040b30                D_80040B30
                0x0000000080040b34                D_80040B34
                0x0000000080040b38                D_80040B38
                0x0000000080040b3c                D_80040B3C
                0x0000000080040b40                D_80040B40
                0x0000000080040b44                D_80040B44
                0x0000000080040b48                D_80040B48
                0x0000000080040b4c                D_80040B4C
                0x0000000080040b50                D_80040B50
                0x0000000080040b54                D_80040B54
                0x0000000080040b58                D_80040B58
                0x0000000080040b5c                D_80040B5C
                0x0000000080040b60                D_80040B60
                0x0000000080040b64                D_80040B64
                0x0000000080040b68                D_80040B68
                0x0000000080040b6c                D_80040B6C
                0x0000000080040b70                D_80040B70
                0x0000000080040b74                D_80040B74
                0x0000000080040b78                D_80040B78
                0x0000000080040b7c                D_80040B7C
                0x0000000080040b80                D_80040B80
                0x0000000080040b84                D_80040B84
                0x0000000080040b88                D_80040B88
                0x0000000080040b8c                D_80040B8C
                0x0000000080040b90                D_80040B90
                0x0000000080040b94                D_80040B94
                0x0000000080040b98                D_80040B98
                0x0000000080040b9c                D_80040B9C
                0x0000000080040ba0                D_80040BA0
                0x0000000080040ba4                D_80040BA4
                0x0000000080040ba8                D_80040BA8
                0x0000000080040bac                D_80040BAC
                0x0000000080040bb0                D_80040BB0
                0x0000000080040bb4                D_80040BB4
                0x0000000080040d10                D_80040D10
                0x0000000080040d1c                D_80040D1C
                0x0000000080040d20                D_80040D20
                0x0000000080040dec                D_80040DEC
                0x0000000080040df8                D_80040DF8
                0x0000000080040dfc                D_80040DFC
                0x0000000080040e38                D_80040E38
                0x0000000080040e3c                D_80040E3C
                0x0000000080040e40                D_80040E40
                0x0000000080040e7c                D_80040E7C
 build/game/textrelated.o(.data)
 .data          0x0000000080040e80       0xb0 build/game/textrelated.o
                0x0000000080040e80                D_80040E80
                0x0000000080040e84                D_80040E84
                0x0000000080040e88                D_80040E88
                0x0000000080040e8c                D_80040E8C
                0x0000000080040e90                D_80040E90
                0x0000000080040e94                D_80040E94
                0x0000000080040e98                D_80040E98
                0x0000000080040e9c                D_80040E9C
                0x0000000080040ea0                D_80040EA0
                0x0000000080040ea4                D_80040EA4
                0x0000000080040ea8                D_80040EA8
                0x0000000080040eac                D_80040EAC
                0x0000000080040eb0                D_80040EB0
                0x0000000080040eb4                ptrFirstFontTable
                0x0000000080040eb8                ptrSecondFontTable
                0x0000000080040ebc                D_80040EBC
                0x0000000080040edc                D_80040EDC
                0x0000000080040ee0                D_80040EE0
                0x0000000080040ee4                D_80040EE4
                0x0000000080040efc                D_80040EFC
                0x0000000080040f00                D_80040F00
                0x0000000080040f04                D_80040F04
                0x0000000080040f08                D_80040F08
                0x0000000080040f0c                D_80040F0C
                0x0000000080040f10                D_80040F10
                0x0000000080040f14                D_80040F14
                0x0000000080040f18                D_80040F18
                0x0000000080040f1c                D_80040F1C
                0x0000000080040f20                D_80040F20
                0x0000000080040f24                D_80040F24
                0x0000000080040f28                D_80040F28
 build/game/stan.o(.data)
 .data          0x0000000080040f30      0x4c0 build/game/stan.o
                0x0000000080040f30                D_80040F30
                0x0000000080040f40                stan_c_debug_notice_list_entry
                0x0000000080040f44                D_80040F44
                0x0000000080040f48                D_80040F48
                0x0000000080040f4c                list_of_tilesizes
                0x0000000080040f58                base_ptr_connection_vals
                0x0000000080040f5c                ptr_firstroom_0
                0x0000000080040f60                D_80040F60
                0x0000000080040f64                D_80040F64
                0x0000000080040fac                D_80040FAC
                0x0000000080040fb0                stanLoaded
                0x0000000080040fb4                stanlinelog_flag
                0x00000000800413bc                D_800413BC
                0x00000000800413c0                D_800413C0
                0x00000000800413c4                D_800413C4
                0x00000000800413c8                D_800413C8
                0x00000000800413cc                D_800413CC
                0x00000000800413d0                D_800413D0
 build/game/unk_0B3200.o(.data)
 build/game/bg.o(.data)
 .data          0x00000000800413f0     0x39d0 build/game/bg.o
                0x00000000800413f0                ptr_bg_c_debug_debug_notice_list
                0x00000000800413f4                D_800413F4
                0x00000000800413f8                D_800413F8
                0x00000000800413fc                D_800413FC
                0x0000000080041400                D_80041400
                0x0000000080041404                D_80041404
                0x0000000080041408                D_80041408
                0x000000008004140c                D_8004140C
                0x0000000080041410                D_80041410
                0x0000000080041414                D_80041414
                0x0000000080041418                D_80041418
                0x0000000080041424                room_information
                0x0000000080041474                D_80041474
                0x00000000800414c4                D_800414C4
                0x0000000080041514                D_80041514
                0x0000000080041564                D_80041564
                0x00000000800415b4                D_800415B4
                0x0000000080041604                D_80041604
                0x0000000080041654                D_80041654
                0x00000000800416a4                D_800416A4
                0x00000000800416f4                D_800416F4
                0x0000000080041744                D_80041744
                0x0000000080041794                D_80041794
                0x00000000800417e4                D_800417E4
                0x0000000080041834                D_80041834
                0x0000000080041884                D_80041884
                0x00000000800418d4                D_800418D4
                0x0000000080041924                D_80041924
                0x0000000080041974                D_80041974
                0x00000000800419c4                D_800419C4
                0x0000000080041a14                D_80041A14
                0x0000000080041a64                D_80041A64
                0x0000000080041ab4                D_80041AB4
                0x0000000080041b04                D_80041B04
                0x0000000080041b54                D_80041B54
                0x0000000080041ba4                D_80041BA4
                0x0000000080041bf4                D_80041BF4
                0x0000000080041c44                D_80041C44
                0x0000000080041c94                D_80041C94
                0x0000000080041ce4                D_80041CE4
                0x0000000080041d34                D_80041D34
                0x0000000080041d84                D_80041D84
                0x0000000080041dd4                D_80041DD4
                0x0000000080041e24                D_80041E24
                0x0000000080041e74                D_80041E74
                0x0000000080041ec4                D_80041EC4
                0x0000000080041f14                D_80041F14
                0x0000000080041f64                D_80041F64
                0x0000000080041fb4                D_80041FB4
                0x0000000080042004                D_80042004
                0x0000000080042054                D_80042054
                0x00000000800420a4                D_800420A4
                0x00000000800420f4                D_800420F4
                0x0000000080042144                D_80042144
                0x0000000080042194                D_80042194
                0x00000000800421e4                D_800421E4
                0x0000000080042234                D_80042234
                0x0000000080042284                D_80042284
                0x00000000800422d4                D_800422D4
                0x0000000080042324                D_80042324
                0x0000000080042374                D_80042374
                0x00000000800423c4                D_800423C4
                0x0000000080042414                D_80042414
                0x0000000080042464                D_80042464
                0x00000000800424b4                D_800424B4
                0x0000000080042504                D_80042504
                0x0000000080042554                D_80042554
                0x00000000800425a4                D_800425A4
                0x00000000800425f4                D_800425F4
                0x0000000080042644                D_80042644
                0x0000000080042694                D_80042694
                0x00000000800426e4                D_800426E4
                0x0000000080042734                D_80042734
                0x0000000080042784                D_80042784
                0x00000000800427d4                D_800427D4
                0x0000000080042824                D_80042824
                0x0000000080042874                D_80042874
                0x00000000800428c4                D_800428C4
                0x0000000080042914                D_80042914
                0x0000000080042964                D_80042964
                0x00000000800429b4                D_800429B4
                0x0000000080042a04                D_80042A04
                0x0000000080042a54                D_80042A54
                0x0000000080042aa4                D_80042AA4
                0x0000000080042af4                D_80042AF4
                0x0000000080042b44                D_80042B44
                0x0000000080042b94                D_80042B94
                0x0000000080042be4                D_80042BE4
                0x0000000080042c34                D_80042C34
                0x0000000080042c84                D_80042C84
                0x0000000080042cd4                D_80042CD4
                0x0000000080042d24                D_80042D24
                0x0000000080042d74                D_80042D74
                0x0000000080042dc4                D_80042DC4
                0x0000000080042e14                D_80042E14
                0x0000000080042e64                D_80042E64
                0x0000000080042eb4                D_80042EB4
                0x0000000080042f04                D_80042F04
                0x0000000080042f54                D_80042F54
                0x0000000080042fa4                D_80042FA4
                0x0000000080042ff4                D_80042FF4
                0x0000000080043044                D_80043044
                0x0000000080043094                D_80043094
                0x00000000800430e4                D_800430E4
                0x0000000080043134                D_80043134
                0x0000000080043184                D_80043184
                0x00000000800431d4                D_800431D4
                0x0000000080043224                D_80043224
                0x0000000080043274                D_80043274
                0x00000000800432c4                D_800432C4
                0x0000000080043314                D_80043314
                0x0000000080043364                D_80043364
                0x00000000800433b4                D_800433B4
                0x0000000080043404                D_80043404
                0x0000000080043454                D_80043454
                0x00000000800434a4                D_800434A4
                0x00000000800434f4                D_800434F4
                0x0000000080043544                D_80043544
                0x0000000080043594                D_80043594
                0x00000000800435e4                D_800435E4
                0x0000000080043634                D_80043634
                0x0000000080043684                D_80043684
                0x00000000800436d4                D_800436D4
                0x0000000080043724                D_80043724
                0x0000000080043774                D_80043774
                0x00000000800437c4                D_800437C4
                0x0000000080043814                D_80043814
                0x0000000080043864                D_80043864
                0x00000000800438b4                D_800438B4
                0x0000000080043904                D_80043904
                0x0000000080043954                D_80043954
                0x00000000800439a4                D_800439A4
                0x00000000800439f4                D_800439F4
                0x0000000080043a44                D_80043A44
                0x0000000080043a94                D_80043A94
                0x0000000080043ae4                D_80043AE4
                0x0000000080043b34                D_80043B34
                0x0000000080043b84                D_80043B84
                0x0000000080043bd4                D_80043BD4
                0x0000000080043c24                D_80043C24
                0x0000000080043c74                D_80043C74
                0x0000000080043cc4                D_80043CC4
                0x0000000080043d14                D_80043D14
                0x0000000080043d64                D_80043D64
                0x0000000080043db4                D_80043DB4
                0x0000000080043e04                D_80043E04
                0x0000000080043e54                D_80043E54
                0x0000000080043ea4                D_80043EA4
                0x0000000080043ef4                D_80043EF4
                0x0000000080043f44                D_80043F44
                0x0000000080043f94                D_80043F94
                0x0000000080043fe4                D_80043FE4
                0x0000000080044034                D_80044034
                0x0000000080044084                D_80044084
                0x00000000800440d4                D_800440D4
                0x0000000080044124                D_80044124
                0x0000000080044174                D_80044174
                0x00000000800441c4                D_800441C4
                0x0000000080044214                D_80044214
                0x0000000080044264                D_80044264
                0x00000000800442b4                D_800442B4
                0x00000000800442f4                MaxNumRooms
                0x00000000800442f8                D_800442F8
                0x00000000800442fc                D_800442FC
                0x00000000800443c4                D_800443C4
                0x000000008004448c                levelinfotable
                0x000000008004481c                D_8004481C
                0x0000000080044824                D_80044824
                0x0000000080044838                current_room_maybe
                0x000000008004483c                NumberOfRoomsDrawn
                0x0000000080044840                GlobalLight
                0x0000000080044858                D_80044858
                0x000000008004485c                D_8004485C
                0x0000000080044860                D_80044860
                0x0000000080044864                D_80044864
                0x0000000080044868                D_80044868
                0x000000008004486c                D_8004486C
                0x0000000080044870                D_80044870
                0x0000000080044874                D_80044874
                0x0000000080044878                D_80044878
                0x000000008004487c                D_8004487C
                0x0000000080044880                D_80044880
                0x0000000080044884                D_80044884
                0x0000000080044888                D_80044888
                0x000000008004488c                D_8004488C
                0x0000000080044890                D_80044890
                0x0000000080044894                D_80044894
                0x0000000080044898                D_80044898
                0x000000008004489c                D_8004489C
                0x00000000800448a0                D_800448A0
                0x00000000800448a4                D_800448A4
                0x00000000800448a8                D_800448A8
                0x00000000800448f8                D_800448F8
                0x00000000800448fc                current_visibility
                0x0000000080044900                D_80044900
                0x0000000080044904                D_80044904
                0x0000000080044908                D_80044908
                0x000000008004490c                D_8004490C
                0x0000000080044910                D_80044910
                0x0000000080044914                D_80044914
                0x0000000080044918                D_80044918
                0x000000008004491c                D_8004491C
                0x0000000080044920                D_80044920
                0x0000000080044924                D_80044924
                0x0000000080044928                D_80044928
                0x0000000080044940                D_80044940
                0x00000000800449c8                D_800449C8
                0x0000000080044ab0                D_80044AB0
                0x0000000080044b58                D_80044B58
                0x0000000080044c00                D_80044C00
                0x0000000080044c28                D_80044C28
                0x0000000080044c50                D_80044C50
                0x0000000080044c68                D_80044C68
                0x0000000080044ca0                D_80044CA0
                0x0000000080044d88                ptrDynamic_CC_RM_LUT
                0x0000000080044db0                D_80044DB0
 build/game/fog.o(.data)
 .data          0x0000000080044dc0     0x1270 build/game/fog.o
                0x0000000080044dc0                D_80044DC0
                0x0000000080044dc4                near_fog_value
                0x0000000080044dc8                near_fog_times_intensity
                0x0000000080044dcc                ptr_current_data
                0x0000000080044e10                fog_tables
                0x0000000080045f50                fog_tables2
 build/game/lightfixture.o(.data)
 .data          0x0000000080046030       0x20 build/game/lightfixture.o
                0x0000000080046030                D_80046030
 build/game/unk_0BC530.o(.data)
 build/game/ob.o(.data)
 .data          0x0000000080046050     0x2290 build/game/ob.o
                0x0000000080046050                D_80046050
                0x0000000080046054                file_resource_table
                0x00000000800482d4                file_entry_max
 build/game/dyn.o(.data)
 .data          0x00000000800482e0       0x80 build/game/dyn.o
                0x00000000800482e0                D_800482E0
                0x00000000800482e4                D_800482E4
                0x00000000800482f0                D_800482F0
                0x0000000080048304                membars_string1
                0x0000000080048320                membars_string2
                0x000000008004833c                membars_string3
 build/game/lvl.o(.data)
 .data          0x0000000080048360       0x90 build/game/lvl.o
                0x0000000080048360                D_80048360
                0x0000000080048364                current_stage_to_load
                0x0000000080048368                D_80048368
                0x000000008004836c                D_8004836C
                0x0000000080048370                controls_locked_flag
                0x0000000080048374                clock_timer
                0x0000000080048378                global_timer_delta
                0x000000008004837c                global_timer
                0x0000000080048380                D_80048380
                0x0000000080048384                difficulty_0
                0x0000000080048388                D_80048388
                0x000000008004838c                D_8004838C
                0x0000000080048390                D_80048390
                0x0000000080048394                D_80048394
                0x0000000080048398                mp_time
                0x000000008004839c                mp_point
                0x00000000800483a0                D_800483A0
                0x00000000800483a4                cur_mp_sec
                0x00000000800483a8                D_800483A8
                0x00000000800483ac                cur_mp_min
                0x00000000800483b0                D_800483B0
                0x00000000800483b4                stage_time_sec
                0x00000000800483b8                D_800483B8
                0x00000000800483bc                poweron_time_sec
                0x00000000800483c0                D_800483C0
                0x00000000800483c4                D_800483C4
                0x00000000800483c8                D_800483C8
                0x00000000800483cc                D_800483CC
                0x00000000800483d0                D_800483D0
                0x00000000800483d4                D_800483D4
                0x00000000800483d8                D_800483D8
                0x00000000800483dc                D_800483DC
                0x00000000800483e0                D_800483E0
                0x00000000800483e4                D_800483E4
                0x00000000800483e8                D_800483E8
                0x00000000800483ec                D_800483EC
 build/game/lvl_2.o(.data)
 .data          0x00000000800483f0       0xa0 build/game/lvl_2.o
                0x00000000800483f0                ramrom_table
                0x0000000080048468                ramrom_blkbuf_1
                0x000000008004846c                ramrom_blkbuf_2
                0x0000000080048470                ramrom_blkbuf_3
                0x0000000080048474                is_ramrom_flag
                0x0000000080048478                ramrom_demo_related_3
                0x000000008004847c                ramrom_demo_related_4
                0x0000000080048480                recording_ramrom_flag
                0x0000000080048484                ramrom_demo_related_6
                0x0000000080048488                flag_to_record_ramrom
 build/game/unk_0C0A70.o(.data)
 .data          0x0000000080048490       0x30 build/game/unk_0C0A70.o
                0x0000000080048490                D_80048490
                0x0000000080048494                D_80048494
                0x0000000080048498                D_80048498
                0x000000008004849c                D_8004849C
                0x00000000800484a0                D_800484A0
                0x00000000800484a4                D_800484A4
                0x00000000800484a8                D_800484A8
                0x00000000800484ac                copy_of_osgetcount_value_0
                0x00000000800484b0                copy_of_osgetcount_value_1
                0x00000000800484b4                D_800484B4
 build/game/mp_music.o(.data)
 .data          0x00000000800484c0       0x10 build/game/mp_music.o
                0x00000000800484c0                mission_state
 build/game/lvl_text.o(.data)
 .data          0x00000000800484d0      0x170 build/game/lvl_text.o
                0x00000000800484d0                j_text_trigger
                0x00000000800484d4                LnameX_lookuptable
 build/game/mp_watch.o(.data)
 .data          0x0000000080048640       0x30 build/game/mp_watch.o
                0x0000000080048640                loaded_text_index
 build/game/radar.o(.data)
 build/game/mp_weapon.o(.data)
 .data          0x0000000080048670      0xb00 build/game/mp_weapon.o
                0x0000000080048670                type_0_stru_800490F0
                0x0000000080048730                type_1_stru_800490F0
                0x00000000800487f0                type_D_stru_800490F0
                0x00000000800488b0                type_2_stru_800490F0
                0x0000000080048970                type_3_stru_800490F0
                0x0000000080048a30                type_4_stru_800490F0
                0x0000000080048af0                type_5_stru_800490F0
                0x0000000080048bb0                type_6_stru_800490F0
                0x0000000080048c70                type_7_stru_800490F0
                0x0000000080048d30                type_8_stru_800490F0
                0x0000000080048df0                type_9_stru_800490F0
                0x0000000080048eb0                type_A_stru_800490F0
                0x0000000080048f70                type_B_stru_800490F0
                0x0000000080049030                type_C_stru_800490F0
                0x00000000800490f0                mp_weapon_set_text_table
                0x0000000080049160                mp_weapon_set
 build/game/image.o(.data)
 .data          0x0000000080049170     0x55f0 build/game/image.o
                0x0000000080049170                bytes
                0x0000000080049174                D_80049174
                0x0000000080049178                D_80049178
                0x00000000800491e0                D_800491E0
                0x0000000080049248                D_80049248
                0x0000000080049258                D_80049258
                0x0000000080049298                D_80049298
                0x00000000800492a0                D_800492A0
                0x00000000800492a8                D_800492A8
                0x00000000800492d4                D_800492D4
                0x0000000080049300                image_entries
 build/game/image_bank.o(.data)
 build/game/unk_0CC4C0.o(.data)
 .data          0x000000008004e760      0x180 build/game/unk_0CC4C0.o
                0x000000008004e760                D_8004E760
                0x000000008004e764                D_8004E764
                0x000000008004e768                isnd_default
                0x000000008004e774                D_8004E774
                0x000000008004e778                D_8004E778
                0x000000008004e77c                isnd_stone
                0x000000008004e788                D_8004E788
                0x000000008004e78c                D_8004E78C
                0x000000008004e790                isnd_wood
                0x000000008004e79c                D_8004E79C
                0x000000008004e7a4                D_8004E7A4
                0x000000008004e7a8                isnd_metal
                0x000000008004e7b4                D_8004E7B4
                0x000000008004e7b8                D_8004E7B8
                0x000000008004e7bc                isnd_glass
                0x000000008004e7c8                D_8004E7C8
                0x000000008004e7cc                D_8004E7CC
                0x000000008004e7d0                isnd_water
                0x000000008004e7dc                D_8004E7DC
                0x000000008004e7e0                D_8004E7E0
                0x000000008004e7e4                isnd_snow
                0x000000008004e7f0                D_8004E7F0
                0x000000008004e7f4                D_8004E7F4
                0x000000008004e7f8                isnd_dirt
                0x000000008004e804                D_8004E804
                0x000000008004e80c                D_8004E80C
                0x000000008004e810                isnd_mud
                0x000000008004e81c                D_8004E81C
                0x000000008004e820                D_8004E820
                0x000000008004e824                isnd_tile
                0x000000008004e830                D_8004E830
                0x000000008004e834                D_8004E834
                0x000000008004e838                isnd_metalobj
                0x000000008004e844                D_8004E844
                0x000000008004e848                D_8004E848
                0x000000008004e84c                isnd_chr
                0x000000008004e858                D_8004E858
                0x000000008004e85c                D_8004E85C
                0x000000008004e860                isnd_glass_xlu
                0x000000008004e86c                D_8004E86C
 build/game/decompress.o(.data)
 build/game/zlib.o(.data)
 .data          0x000000008004e8e0      0x100 build/game/zlib.o
                0x000000008004e8e0                D_8004E8E0
                0x000000008004e8f4                D_8004E8F4
                0x000000008004e934                D_8004E934
                0x000000008004e954                D_8004E954
                0x000000008004e990                D_8004E990
                0x000000008004e9b0                D_8004E9B0
                0x000000008004e9d4                D_8004E9D4
                0x000000008004e9d8                D_8004E9D8
 build/game/rsp.o(.data)
 .data          0x000000008004e9e0       0xe0 build/game/rsp.o
                0x000000008004e9e0                D_8004E9E0
                0x000000008004e9e4                D_8004E9E4
                0x000000008004e9e8                D_8004E9E8
                0x000000008004e9ec                D_8004E9EC
                0x000000008004e9f0                fast3d_related_0
                0x000000008004ea50                fast3d_related_1
                0x000000008004eab0                fast3d_related_array
 build/game/indy_comms.o(.data)
 build/game/indy_0D0180.o(.data)
 .data          0x000000008004eac0       0x20 build/game/indy_0D0180.o
                0x000000008004eac0                D_8004EAC0
                0x000000008004eac4                D_8004EAC4
                0x000000008004eac8                indy_ready
                0x000000008004eacc                D_8004EACC
                0x000000008004ead0                D_8004EAD0
 build/game/game_debug.o(.data)
 .data          0x000000008004eae0       0x10 build/game/game_debug.o
                0x000000008004eae0                D_8004EAE0
 build/game/compiletime.o(.data)
 build/game/unk_0D1AC0.o(.data)
 .data          0x000000008004eaf0       0x10 build/game/unk_0D1AC0.o
                0x000000008004eaf0                D_8004EAF0
                0x000000008004eaf4                D_8004EAF4
 build/game/viewport.o(.data)
 .data          0x000000008004eb00       0x10 build/game/viewport.o
                0x000000008004eb00                viewport_img
 build/game/music_0D2720.o(.data)
 .data          0x000000008004eb10      0x120 build/game/music_0D2720.o
                0x000000008004eb10                music_setup_entries
                0x000000008004ebd0                random_tracks
 build/game/spectrum.o(.data)
 .data          0x000000008004ec30      0x140 build/game/spectrum.o
                0x000000008004ec30                D_8004EC30
                0x000000008004ec34                D_8004EC34
                0x000000008004ec38                D_8004EC38
                0x000000008004ec3c                D_8004EC3C
                0x000000008004ec40                D_8004EC40
                0x000000008004ed08                D_8004ED08
                0x000000008004ed0c                D_8004ED0C
                0x000000008004ed2c                romnames
                0x000000008004ed54                D_8004ED54
 build/game/initgamedata.o(.rodata)
 build/game/initweaponanigroups.o(.rodata)
 build/game/initactorpropstuff.o(.rodata)
 .rodata        0x000000008004ed70       0x10 build/game/initactorpropstuff.o
                0x000000008004ed70                F32_8004ED70
                0x000000008004ed74                F32_8004ED74
                0x000000008004ed78                F32_8004ED78
 build/game/initnull_0009D0.o(.rodata)
 build/game/initunk_0009E0.o(.rodata)
 build/game/initanitable.o(.rodata)
 build/game/initunk_000B60.o(.rodata)
 build/game/setguscale.o(.rodata)
 .rodata        0x000000008004ed80       0x10 build/game/setguscale.o
                0x000000008004ed80                default_gu_scale
 build/game/initnull_000BC0.o(.rodata)
 build/game/initimages.o(.rodata)
 build/game/initintromatrices.o(.rodata)
 build/game/initmenus.o(.rodata)
 build/game/initguards.o(.rodata)
 build/game/deb_loadallmodels.o(.rodata)
 build/game/initobjects.o(.rodata)
 build/game/prop.o(.rodata)
 .rodata        0x000000008004ed90      0x350 build/game/prop.o
                0x000000008004ed90                aNochr
                0x000000008004ed98                aNoprop
                0x000000008004eda0                aNoobj
                0x000000008004eda8                aNoprop_0
                0x000000008004edb0                only_read_by_stageload
                0x000000008004eeb0                aMp_
                0x000000008004eeb4                D_8004EEB4
                0x000000008004eeb8                jpt_700366F0
                0x000000008004ef30                jpt_mp_ammo_crate_expansion
                0x000000008004ef50                D_8004EF50
                0x000000008004ef54                D_8004EF54
                0x000000008004ef58                D_8004EF58
                0x000000008004ef5c                D_8004EF5C
                0x000000008004ef60                D_8004EF60
                0x000000008004ef64                D_8004EF64
                0x000000008004ef68                jpt_object_type_expansion
                0x000000008004f024                D_8004F024
                0x000000008004f028                D_8004F028
                0x000000008004f02c                jpt_70038A94
 build/game/objective.o(.rodata)
 build/game/ejectedcartridges.o(.rodata)
 build/game/initBondDATA.o(.rodata)
 .rodata        0x000000008004f0e0       0x10 build/game/initBondDATA.o
                0x000000008004f0e0                D_8004F0E0
                0x000000008004f0e4                fl_neg_pi
 build/game/initunk_005450.o(.rodata)
 build/game/initunk_005520.o(.rodata)
 build/game/initcameraandthrown.o(.rodata)
 .rodata        0x000000008004f0f0      0x100 build/game/initcameraandthrown.o
                0x000000008004f0f0                projectile_ptr_table
                0x000000008004f1a8                default_zoom_speed
                0x000000008004f1ac                jpt_700399A4
                0x000000008004f1d0                D_8004F1D0
                0x000000008004f1d4                D_8004F1D4
                0x000000008004f1d8                D_8004F1D8
                0x000000008004f1dc                D_8004F1DC
                0x000000008004f1e0                D_8004F1E0
 build/game/inititemslots.o(.rodata)
 build/game/initBondDATAdefaults.o(.rodata)
 .rodata        0x000000008004f1f0       0x10 build/game/initBondDATAdefaults.o
                0x000000008004f1f0                D_8004F1F0
                0x000000008004f1f4                D_8004F1F4
                0x000000008004f1f8                D_8004F1F8
 build/game/initpathtablesomething.o(.rodata)
 build/game/initpathtablelinks.o(.rodata)
 build/game/initexplosioncasing.o(.rodata)
 build/game/initunk_007180.o(.rodata)
 build/game/initunk_007290.o(.rodata)
 build/game/initunk_0072B0.o(.rodata)
 build/game/initmttex.o(.rodata)
 .rodata        0x000000008004f200       0x10 build/game/initmttex.o
                0x000000008004f200                str_Mt
                0x000000008004f204                str_Mt_0
 build/game/initunk_0073B0.o(.rodata)
 build/game/initunk_007460.o(.rodata)
 build/game/cleanup_alarms.o(.rodata)
 build/game/cleanup_objects.o(.rodata)
 .rodata        0x000000008004f210       0xc0 build/game/cleanup_objects.o
                0x000000008004f210                jpt_7003B478
 build/game/cleanup_objectives.o(.rodata)
 build/game/cleanupSFXRelated.o(.rodata)
 build/game/playerstats_007770.o(.rodata)
 build/game/unk_007800.o(.rodata)
 build/game/unk_007920.o(.rodata)
 build/game/null_007970.o(.rodata)
 build/game/unk_007980.o(.rodata)
 build/game/intro_logos.o(.rodata)
 .rodata        0x000000008004f2d0       0x40 build/game/intro_logos.o
                0x000000008004f2d0                D_8004F2D0
                0x000000008004f2d4                D_8004F2D4
                0x000000008004f2d8                D_8004F2D8
                0x000000008004f2dc                D_8004F2DC
                0x000000008004f2e0                jpt_7003D1CC
                0x000000008004f2fc                D_8004F2FC
                0x000000008004f300                D_8004F300
                0x000000008004f304                D_8004F304
 build/game/mainmenu.o(.rodata)
 .rodata        0x000000008004f310     0x29e0 build/game/mainmenu.o
                0x000000008004f488                asc_D_8004F488
                0x000000008004f48c                a_
                0x000000008004f490                asc_D_8004F490
                0x000000008004f494                a1_
                0x000000008004f498                a2_
                0x000000008004f49c                a3_
                0x000000008004f4a0                asc_D_8004F4A0
                0x000000008004f4a4                asc_D_8004F4A4
                0x000000008004f4a8                asc_D_8004F4A8
                0x000000008004f4ac                asc_D_8004F4AC
                0x000000008004f4b0                asc_D_8004F4B0
                0x000000008004f4b4                asc_D_8004F4B4
                0x000000008005006c                aD_
                0x0000000080050074                asc_D_80050074
                0x0000000080050c2c                aD
                0x0000000080050c34                aD_0
                0x0000000080050c3c                aD_1
                0x0000000080050c44                aD_2
                0x0000000080050c4c                aD_7
                0x0000000080050c50                aA_
                0x0000000080050c54                asc_D_80050C54
                0x000000008005180c                a02d02d
                0x0000000080051818                aS
                0x0000000080051824                a02d02d_0
                0x0000000080051830                aS02d02d
                0x0000000080051848                D_80051848
                0x000000008005184c                a02d02d_1
                0x0000000080051858                a_1f
                0x0000000080051860                aX2
                0x0000000080051868                aD_8
                0x000000008005186c                aDD_0
                0x0000000080051878                aDD_1
                0x0000000080051884                aDD_2
                0x0000000080051890                aDD_3
                0x000000008005189c                aD_10
                0x00000000800518a0                cheat_available_table
                0x00000000800519c8                folder_menu_x_dim
                0x00000000800519cc                folder_menu_z_dim
                0x00000000800519d0                D_800519D0
                0x00000000800519d4                D_800519D4
                0x00000000800519d8                tab1_max_x_coord
                0x00000000800519dc                tab2_first_x_coord
                0x00000000800519e0                tab2_bottom_y_coord
                0x00000000800519e4                D_800519E4
                0x00000000800519e8                D_800519E8
                0x00000000800519ec                D_800519EC
                0x00000000800519f0                D_800519F0
                0x00000000800519f4                D_800519F4
                0x00000000800519f8                D_800519F8
                0x00000000800519fc                D_800519FC
                0x0000000080051a00                D_80051A00
                0x0000000080051a04                D_80051A04
                0x0000000080051a08                D_80051A08
                0x0000000080051a0c                D_80051A0C
                0x0000000080051a10                D_80051A10
                0x0000000080051a14                D_80051A14
                0x0000000080051a18                D_80051A18
                0x0000000080051a1c                D_80051A1C
                0x0000000080051a20                D_80051A20
                0x0000000080051a24                D_80051A24
                0x0000000080051a28                D_80051A28
                0x0000000080051a2c                D_80051A2C
                0x0000000080051a30                D_80051A30
                0x0000000080051a34                D_80051A34
                0x0000000080051a38                D_80051A38
                0x0000000080051a3c                D_80051A3C
                0x0000000080051a40                D_80051A40
                0x0000000080051a44                D_80051A44
                0x0000000080051a48                D_80051A48
                0x0000000080051a4c                D_80051A4C
                0x0000000080051a50                D_80051A50
                0x0000000080051a54                D_80051A54
                0x0000000080051a58                D_80051A58
                0x0000000080051a5c                D_80051A5C
                0x0000000080051a60                jpt_scenario_specific_settings_mp
                0x0000000080051a80                D_80051A80
                0x0000000080051a84                D_80051A84
                0x0000000080051a88                D_80051A88
                0x0000000080051a8c                D_80051A8C
                0x0000000080051a90                D_80051A90
                0x0000000080051a94                D_80051A94
                0x0000000080051a98                D_80051A98
                0x0000000080051a9c                D_80051A9C
                0x0000000080051aa0                D_80051AA0
                0x0000000080051aa4                D_80051AA4
                0x0000000080051aa8                D_80051AA8
                0x0000000080051aac                D_80051AAC
                0x0000000080051ab0                D_80051AB0
                0x0000000080051ab4                D_80051AB4
                0x0000000080051ab8                D_80051AB8
                0x0000000080051abc                D_80051ABC
                0x0000000080051ac0                jpt_briefingpage_name
                0x0000000080051ad4                D_80051AD4
                0x0000000080051ad8                D_80051AD8
                0x0000000080051adc                D_80051ADC
                0x0000000080051ae0                D_80051AE0
                0x0000000080051ae4                D_80051AE4
                0x0000000080051ae8                D_80051AE8
                0x0000000080051aec                jpt_intro_bond_head
                0x0000000080051b00                D_80051B00
                0x0000000080051b04                D_80051B04
                0x0000000080051b08                D_80051B08
                0x0000000080051b0c                D_80051B0C
                0x0000000080051b10                D_80051B10
                0x0000000080051b14                D_80051B14
                0x0000000080051b18                D_80051B18
                0x0000000080051b1c                D_80051B1C
                0x0000000080051b20                D_80051B20
                0x0000000080051b24                D_80051B24
                0x0000000080051b28                D_80051B28
                0x0000000080051b2c                D_80051B2C
                0x0000000080051b30                D_80051B30
                0x0000000080051b34                D_80051B34
                0x0000000080051b38                D_80051B38
                0x0000000080051b3c                D_80051B3C
                0x0000000080051b40                D_80051B40
                0x0000000080051b44                D_80051B44
                0x0000000080051b48                D_80051B48
                0x0000000080051b4c                jpt_menu_update
                0x0000000080051bb4                jpt_menu_init
                0x0000000080051c1c                jpt_menu_interface
                0x0000000080051c84                jpt_menu_constructor
 build/game/unk_01B0E0.o(.rodata)
 build/game/unk_01B240.o(.rodata)
 .rodata        0x0000000080051cf0       0x10 build/game/unk_01B240.o
                0x0000000080051cf0                D_80051CF0
 build/game/unk_01BAE0.o(.rodata)
 .rodata        0x0000000080051d00       0x10 build/game/unk_01BAE0.o
                0x0000000080051d00                PI_80051D00
 build/game/blood_animation.o(.rodata)
 build/game/blood_decrypt.o(.rodata)
 build/game/eeprom.o(.rodata)
 build/game/actor.o(.rodata)
 .rodata        0x0000000080051d10      0x3f0 build/game/actor.o
                0x0000000080051d10                D_80051D10
                0x0000000080051d14                D_80051D14
                0x0000000080051d18                D_80051D18
                0x0000000080051d1c                D_80051D1C
                0x0000000080051d20                D_80051D20
                0x0000000080051d24                D_80051D24
                0x0000000080051d28                D_80051D28
                0x0000000080051d2c                D_80051D2C
                0x0000000080051d30                D_80051D30
                0x0000000080051d34                D_80051D34
                0x0000000080051d38                D_80051D38
                0x0000000080051d3c                D_80051D3C
                0x0000000080051d40                D_80051D40
                0x0000000080051d44                D_80051D44
                0x0000000080051d48                D_80051D48
                0x0000000080051d4c                D_80051D4C
                0x0000000080051d50                D_80051D50
                0x0000000080051d54                D_80051D54
                0x0000000080051d58                D_80051D58
                0x0000000080051d5c                D_80051D5C
                0x0000000080051d60                D_80051D60
                0x0000000080051d64                D_80051D64
                0x0000000080051d68                D_80051D68
                0x0000000080051d6c                D_80051D6C
                0x0000000080051d70                D_80051D70
                0x0000000080051d74                D_80051D74
                0x0000000080051d78                D_80051D78
                0x0000000080051d7c                D_80051D7C
                0x0000000080051d80                D_80051D80
                0x0000000080051d84                D_80051D84
                0x0000000080051d88                D_80051D88
                0x0000000080051d8c                D_80051D8C
                0x0000000080051d90                D_80051D90
                0x0000000080051d94                D_80051D94
                0x0000000080051d98                D_80051D98
                0x0000000080051d9c                D_80051D9C
                0x0000000080051da0                D_80051DA0
                0x0000000080051da4                D_80051DA4
                0x0000000080051da8                D_80051DA8
                0x0000000080051dac                D_80051DAC
                0x0000000080051db0                D_80051DB0
                0x0000000080051db4                D_80051DB4
                0x0000000080051db8                D_80051DB8
                0x0000000080051dbc                D_80051DBC
                0x0000000080051dc0                D_80051DC0
                0x0000000080051dc4                D_80051DC4
                0x0000000080051dc8                D_80051DC8
                0x0000000080051dcc                D_80051DCC
                0x0000000080051dd0                D_80051DD0
                0x0000000080051dd4                D_80051DD4
                0x0000000080051dd8                D_80051DD8
                0x0000000080051ddc                D_80051DDC
                0x0000000080051de0                D_80051DE0
                0x0000000080051de4                D_80051DE4
                0x0000000080051de8                D_80051DE8
                0x0000000080051dec                D_80051DEC
                0x0000000080051df0                D_80051DF0
                0x0000000080051df4                D_80051DF4
                0x0000000080051df8                D_80051DF8
                0x0000000080051dfc                D_80051DFC
                0x0000000080051e00                D_80051E00
                0x0000000080051e04                D_80051E04
                0x0000000080051e08                D_80051E08
                0x0000000080051e0c                D_80051E0C
                0x0000000080051e10                D_80051E10
                0x0000000080051e14                D_80051E14
                0x0000000080051e18                D_80051E18
                0x0000000080051e1c                D_80051E1C
                0x0000000080051e20                D_80051E20
                0x0000000080051e24                D_80051E24
                0x0000000080051e28                D_80051E28
                0x0000000080051e2c                D_80051E2C
                0x0000000080051e30                D_80051E30
                0x0000000080051e34                D_80051E34
                0x0000000080051e38                D_80051E38
                0x0000000080051e3c                D_80051E3C
                0x0000000080051e40                D_80051E40
                0x0000000080051e44                D_80051E44
                0x0000000080051e48                D_80051E48
                0x0000000080051e4c                D_80051E4C
                0x0000000080051e50                D_80051E50
                0x0000000080051e54                D_80051E54
                0x0000000080051e58                D_80051E58
                0x0000000080051e5c                D_80051E5C
                0x0000000080051e60                D_80051E60
                0x0000000080051e64                D_80051E64
                0x0000000080051e68                D_80051E68
                0x0000000080051e6c                D_80051E6C
                0x0000000080051e70                D_80051E70
                0x0000000080051e74                D_80051E74
                0x0000000080051e78                D_80051E78
                0x0000000080051e7c                D_80051E7C
                0x0000000080051e80                D_80051E80
                0x0000000080051e84                D_80051E84
                0x0000000080051e88                D_80051E88
                0x0000000080051e8c                D_80051E8C
                0x0000000080051e90                D_80051E90
                0x0000000080051e94                D_80051E94
                0x0000000080051e98                D_80051E98
                0x0000000080051e9c                D_80051E9C
                0x0000000080051ea0                D_80051EA0
                0x0000000080051ea4                D_80051EA4
                0x0000000080051ea8                D_80051EA8
                0x0000000080051eac                D_80051EAC
                0x0000000080051eb0                D_80051EB0
                0x0000000080051eb4                D_80051EB4
                0x0000000080051eb8                D_80051EB8
                0x0000000080051ebc                D_80051EBC
                0x0000000080051ec0                D_80051EC0
                0x0000000080051ec4                D_80051EC4
                0x0000000080051ec8                D_80051EC8
                0x0000000080051ecc                D_80051ECC
                0x0000000080051ed0                D_80051ED0
                0x0000000080051ed4                D_80051ED4
                0x0000000080051ed8                D_80051ED8
                0x0000000080051edc                D_80051EDC
                0x0000000080051ee0                D_80051EE0
                0x0000000080051ee4                D_80051EE4
                0x0000000080051ee8                D_80051EE8
                0x0000000080051eec                D_80051EEC
                0x0000000080051ef0                D_80051EF0
                0x0000000080051ef4                D_80051EF4
                0x0000000080051ef8                D_80051EF8
                0x0000000080051efc                D_80051EFC
                0x0000000080051f00                D_80051F00
                0x0000000080051f04                D_80051F04
                0x0000000080051f08                D_80051F08
                0x0000000080051f0c                D_80051F0C
                0x0000000080051f10                D_80051F10
                0x0000000080051f14                D_80051F14
                0x0000000080051f18                D_80051F18
                0x0000000080051f1c                D_80051F1C
                0x0000000080051f20                D_80051F20
                0x0000000080051f24                D_80051F24
                0x0000000080051f28                D_80051F28
                0x0000000080051f2c                D_80051F2C
                0x0000000080051f30                D_80051F30
                0x0000000080051f34                D_80051F34
                0x0000000080051f38                D_80051F38
                0x0000000080051f3c                D_80051F3C
                0x0000000080051f40                D_80051F40
                0x0000000080051f44                D_80051F44
                0x0000000080051f48                D_80051F48
                0x0000000080051f4c                D_80051F4C
                0x0000000080051f50                D_80051F50
                0x0000000080051f54                D_80051F54
                0x0000000080051f58                D_80051F58
                0x0000000080051f5c                D_80051F5C
                0x0000000080051f60                D_80051F60
                0x0000000080051f64                D_80051F64
                0x0000000080051f68                D_80051F68
                0x0000000080051f6c                D_80051F6C
                0x0000000080051f70                D_80051F70
                0x0000000080051f74                D_80051F74
                0x0000000080051f78                D_80051F78
                0x0000000080051f7c                jpt_700620FC
                0x0000000080051fc8                D_80051FC8
                0x0000000080051fcc                D_80051FCC
                0x0000000080051fd0                D_80051FD0
                0x0000000080051fd4                D_80051FD4
                0x0000000080051fd8                D_80051FD8
                0x0000000080051fdc                D_80051FDC
                0x0000000080051fe0                D_80051FE0
                0x0000000080051fe4                D_80051FE4
                0x0000000080051fe8                D_80051FE8
                0x0000000080051fec                D_80051FEC
                0x0000000080051ff0                D_80051FF0
                0x0000000080051ff4                D_80051FF4
                0x0000000080051ff8                D_80051FF8
                0x0000000080051ffc                D_80051FFC
                0x0000000080052000                D_80052000
                0x0000000080052004                D_80052004
                0x0000000080052008                D_80052008
                0x000000008005200c                D_8005200C
                0x0000000080052010                D_80052010
                0x0000000080052014                D_80052014
                0x0000000080052018                D_80052018
                0x000000008005201c                D_8005201C
                0x0000000080052020                D_80052020
                0x0000000080052024                D_80052024
                0x0000000080052028                D_80052028
                0x000000008005202c                D_8005202C
                0x0000000080052030                D_80052030
                0x0000000080052034                D_80052034
                0x0000000080052038                D_80052038
                0x000000008005203c                D_8005203C
                0x0000000080052040                D_80052040
                0x0000000080052044                D_80052044
                0x0000000080052048                D_80052048
                0x000000008005204c                D_8005204C
                0x0000000080052050                D_80052050
                0x0000000080052054                D_80052054
                0x0000000080052058                D_80052058
                0x000000008005205c                D_8005205C
                0x0000000080052060                D_80052060
                0x0000000080052064                D_80052064
                0x0000000080052068                D_80052068
                0x000000008005206c                D_8005206C
                0x0000000080052070                jpt_700666B0
                0x00000000800520d0                D_800520D0
                0x00000000800520d4                D_800520D4
                0x00000000800520d8                D_800520D8
                0x00000000800520dc                D_800520DC
                0x00000000800520e0                D_800520E0
                0x00000000800520e4                D_800520E4
                0x00000000800520e8                D_800520E8
                0x00000000800520ec                D_800520EC
                0x00000000800520f0                D_800520F0
                0x00000000800520f4                D_800520F4
                0x00000000800520f8                D_800520F8
                0x00000000800520fc                D_800520FC
 build/game/actionblock.o(.rodata)
 .rodata        0x0000000080052100     0x1390 build/game/actionblock.o
                0x0000000080052100                jpt_7006894C
                0x00000000800524f4                D_800524F4
                0x00000000800524f8                jpt_700694DC
                0x00000000800528ec                D_800528EC
                0x00000000800528f0                D_800528F0
                0x00000000800528f4                D_800528F4
                0x00000000800528f8                D_800528F8
                0x00000000800528fc                jpt_7006CB34
                0x0000000080052974                D_80052974
                0x0000000080052978                D_80052978
                0x0000000080052980                jpt_7007045C
                0x00000000800529a0                jpt_7007106C
                0x00000000800529c0                D_800529C0
                0x00000000800529c4                D_800529C4
                0x00000000800529c8                D_800529C8
                0x00000000800529d0                D_800529D0
                0x00000000800529d4                D_800529D4
                0x00000000800529d8                D_800529D8
                0x0000000080052a38                D_80052A38
                0x0000000080052a3c                D_80052A3C
                0x0000000080052a40                D_80052A40
                0x0000000080052a44                D_80052A44
                0x0000000080052a48                D_80052A48
                0x0000000080052a4c                D_80052A4C
                0x0000000080052a50                D_80052A50
                0x0000000080052a54                D_80052A54
                0x0000000080052a58                D_80052A58
                0x0000000080052a5c                D_80052A5C
                0x0000000080052a60                D_80052A60
                0x0000000080052a64                D_80052A64
                0x0000000080052a68                D_80052A68
                0x0000000080052a6c                D_80052A6C
                0x0000000080052a70                D_80052A70
                0x0000000080052a74                D_80052A74
                0x0000000080052a78                D_80052A78
                0x0000000080052a7c                D_80052A7C
                0x0000000080052a80                D_80052A80
                0x0000000080052a84                D_80052A84
                0x0000000080052a88                D_80052A88
                0x0000000080052a8c                D_80052A8C
                0x0000000080052a90                D_80052A90
                0x0000000080052a94                D_80052A94
                0x0000000080052a98                rocket_initial_gravity_modifier
                0x0000000080052a9c                D_80052A9C
                0x0000000080052aa0                D_80052AA0
                0x0000000080052aa4                prop_projectile_gravity_modifier
                0x0000000080052aa8                D_80052AA8
                0x0000000080052aac                D_80052AAC
                0x0000000080052ab0                D_80052AB0
                0x0000000080052ab4                D_80052AB4
                0x0000000080052ab8                D_80052AB8
                0x0000000080052abc                D_80052ABC
                0x0000000080052ac0                D_80052AC0
                0x0000000080052ac4                D_80052AC4
                0x0000000080052ac8                D_80052AC8
                0x0000000080052acc                D_80052ACC
                0x0000000080052ad0                D_80052AD0
                0x0000000080052ad4                D_80052AD4
                0x0000000080052ad8                D_80052AD8
                0x0000000080052adc                D_80052ADC
                0x0000000080052ae0                D_80052AE0
                0x0000000080052ae4                D_80052AE4
                0x0000000080052ae8                D_80052AE8
                0x0000000080052aec                D_80052AEC
                0x0000000080052af0                D_80052AF0
                0x0000000080052af4                D_80052AF4
                0x0000000080052af8                D_80052AF8
                0x0000000080052afc                D_80052AFC
                0x0000000080052b00                D_80052B00
                0x0000000080052b04                D_80052B04
                0x0000000080052b08                D_80052B08
                0x0000000080052b0c                D_80052B0C
                0x0000000080052b10                D_80052B10
                0x0000000080052b14                D_80052B14
                0x0000000080052b18                D_80052B18
                0x0000000080052b1c                D_80052B1C
                0x0000000080052b20                D_80052B20
                0x0000000080052b24                D_80052B24
                0x0000000080052b28                D_80052B28
                0x0000000080052b2c                D_80052B2C
                0x0000000080052b30                D_80052B30
                0x0000000080052b34                D_80052B34
                0x0000000080052b38                D_80052B38
                0x0000000080052b3c                D_80052B3C
                0x0000000080052b40                D_80052B40
                0x0000000080052b44                D_80052B44
                0x0000000080052b48                D_80052B48
                0x0000000080052b4c                D_80052B4C
                0x0000000080052b50                D_80052B50
                0x0000000080052b54                D_80052B54
                0x0000000080052b58                D_80052B58
                0x0000000080052b5c                D_80052B5C
                0x0000000080052b60                D_80052B60
                0x0000000080052b64                D_80052B64
                0x0000000080052b68                D_80052B68
                0x0000000080052b6c                D_80052B6C
                0x0000000080052b70                D_80052B70
                0x0000000080052b74                D_80052B74
                0x0000000080052b78                D_80052B78
                0x0000000080052b7c                D_80052B7C
                0x0000000080052b80                D_80052B80
                0x0000000080052b84                D_80052B84
                0x0000000080052b88                D_80052B88
                0x0000000080052b8c                D_80052B8C
                0x0000000080052b90                D_80052B90
                0x0000000080052b94                D_80052B94
                0x0000000080052b98                jpt_7007DBF0
                0x0000000080052c68                D_80052C68
                0x0000000080052c6c                jpt_7007DF4C
                0x0000000080052cac                D_80052CAC
                0x0000000080052cb0                D_80052CB0
                0x0000000080052cb4                D_80052CB4
                0x0000000080052cb8                D_80052CB8
                0x0000000080052cbc                D_80052CBC
                0x0000000080052cc0                D_80052CC0
                0x0000000080052cc4                D_80052CC4
                0x0000000080052cc8                D_80052CC8
                0x0000000080052ccc                D_80052CCC
                0x0000000080052cd0                D_80052CD0
                0x0000000080052cd4                D_80052CD4
                0x0000000080052cd8                D_80052CD8
                0x0000000080052cdc                D_80052CDC
                0x0000000080052ce0                D_80052CE0
                0x0000000080052ce4                D_80052CE4
                0x0000000080052ce8                D_80052CE8
                0x0000000080052cec                D_80052CEC
                0x0000000080052cf0                D_80052CF0
                0x0000000080052cf4                D_80052CF4
                0x0000000080052cf8                D_80052CF8
                0x0000000080052cfc                D_80052CFC
                0x0000000080052d00                D_80052D00
                0x0000000080052d04                D_80052D04
                0x0000000080052d08                D_80052D08
                0x0000000080052d0c                D_80052D0C
                0x0000000080052d10                D_80052D10
                0x0000000080052d14                D_80052D14
                0x0000000080052d18                D_80052D18
                0x0000000080052d1c                D_80052D1C
                0x0000000080052d20                D_80052D20
                0x0000000080052d24                D_80052D24
                0x0000000080052d28                D_80052D28
                0x0000000080052d2c                D_80052D2C
                0x0000000080052d30                D_80052D30
                0x0000000080052d34                D_80052D34
                0x0000000080052d38                D_80052D38
                0x0000000080052d3c                D_80052D3C
                0x0000000080052d40                D_80052D40
                0x0000000080052d44                D_80052D44
                0x0000000080052d48                D_80052D48
                0x0000000080052d4c                D_80052D4C
                0x0000000080052d50                D_80052D50
                0x0000000080052d54                D_80052D54
                0x0000000080052d58                D_80052D58
                0x0000000080052d5c                D_80052D5C
                0x0000000080052d60                D_80052D60
                0x0000000080052d64                D_80052D64
                0x0000000080052d68                D_80052D68
                0x0000000080052d6c                D_80052D6C
                0x0000000080052d70                D_80052D70
                0x0000000080052d74                D_80052D74
                0x0000000080052d78                D_80052D78
                0x0000000080052d7c                D_80052D7C
                0x0000000080052d80                D_80052D80
                0x0000000080052d84                D_80052D84
                0x0000000080052d88                D_80052D88
                0x0000000080052d8c                D_80052D8C
                0x0000000080052d90                D_80052D90
                0x0000000080052d94                D_80052D94
                0x0000000080052d98                D_80052D98
                0x0000000080052d9c                jpt_70081970
                0x0000000080052df0                jpt_70081F20
                0x0000000080052eac                jpt_70081F5C
                0x0000000080052ef4                D_80052EF4
                0x0000000080052ef8                D_80052EF8
                0x0000000080052efc                D_80052EFC
                0x0000000080052f00                D_80052F00
                0x0000000080052f04                D_80052F04
                0x0000000080052f08                D_80052F08
                0x0000000080052f0c                D_80052F0C
                0x0000000080052f10                jpt_70083244
                0x0000000080052f84                jpt_7008346C
                0x0000000080052fec                jpt_700836DC
                0x0000000080053060                ammo_collected_from_magazine
                0x0000000080053098                ammo_in_weapon
                0x00000000800530d0                jpt_70083DA4
                0x000000008005322c                object_interaction_table
                0x00000000800532e0                D_800532E0
                0x00000000800532e4                D_800532E4
                0x00000000800532e8                D_800532E8
                0x00000000800532ec                D_800532EC
                0x00000000800532f0                D_800532F0
                0x00000000800532f4                jpt_hat_worn
                0x0000000080053324                D_80053324
                0x0000000080053328                D_80053328
                0x000000008005332c                D_8005332C
                0x0000000080053330                D_80053330
                0x0000000080053334                D_80053334
                0x0000000080053338                D_80053338
                0x000000008005333c                D_8005333C
                0x0000000080053340                D_80053340
                0x0000000080053344                D_80053344
                0x0000000080053348                D_80053348
                0x000000008005334c                door_opening_sound_table_0
                0x0000000080053390                door_opening_sound_table_1
                0x00000000800533d4                door_closing_sound_table_0
                0x0000000080053418                door_closing_sound_table_1
                0x000000008005345c                D_8005345C
                0x0000000080053460                D_80053460
                0x0000000080053464                D_80053464
                0x0000000080053468                D_80053468
                0x000000008005346c                D_8005346C
                0x0000000080053470                D_80053470
                0x0000000080053474                D_80053474
                0x0000000080053478                D_80053478
                0x000000008005347c                D_8005347C
                0x0000000080053480                D_80053480
                0x0000000080053484                D_80053484
                0x0000000080053488                D_80053488
                0x000000008005348c                D_8005348C
 build/game/loadobjectmodel.o(.rodata)
 .rodata        0x0000000080053490      0x180 build/game/loadobjectmodel.o
                0x0000000080053490                jpt_object_setup_size
                0x000000008005354c                jpt_7008AE0C
 build/game/objective_status.o(.rodata)
 .rodata        0x0000000080053610       0xb0 build/game/objective_status.o
                0x0000000080053610                D_80053610
                0x0000000080053644                aSAC
                0x000000008005364c                aSC
                0x0000000080053654                jpt_objectives_microcode_handler
                0x0000000080053690                D_80053690
                0x0000000080053694                D_80053694
                0x0000000080053698                D_80053698
                0x000000008005369c                D_8005369C
                0x00000000800536a0                D_800536A0
                0x00000000800536a4                D_800536A4
                0x00000000800536a8                D_800536A8
                0x00000000800536ac                D_800536AC
                0x00000000800536b0                D_800536B0
                0x00000000800536b4                D_800536B4
                0x00000000800536b8                D_800536B8
                0x00000000800536bc                npc_gravity_modifier
 build/game/sin.o(.rodata)
 .rodata        0x00000000800536c0       0x30 build/game/sin.o
                0x00000000800536c0                D_800536C0
                0x00000000800536c4                D_800536C4
                0x00000000800536c8                D_800536C8
                0x00000000800536cc                D_800536CC
                0x00000000800536d0                D_800536D0
                0x00000000800536d4                D_800536D4
                0x00000000800536d8                D_800536D8
                0x00000000800536dc                D_800536DC
                0x00000000800536e0                D_800536E0
                0x00000000800536e4                D_800536E4
                0x00000000800536e8                D_800536E8
                0x00000000800536ec                D_800536EC
 build/game/unk_057FD0.o(.rodata)
 .rodata        0x00000000800536f0       0x10 build/game/unk_057FD0.o
                0x00000000800536f0                D_800536F0
 build/game/unk_05A9E0.o(.rodata)
 build/game/convertangleusinginverse.o(.rodata)
 .rodata        0x0000000080053700       0x20 build/game/convertangleusinginverse.o
                0x0000000080053700                D_80053700
                0x0000000080053704                D_80053704
                0x0000000080053708                D_80053708
                0x000000008005370c                D_8005370C
                0x0000000080053710                D_80053710
                0x0000000080053714                D_80053714
                0x0000000080053718                D_80053718
 build/game/unk_05AB70.o(.rodata)
 build/game/unk_05ACB0.o(.rodata)
 .rodata        0x0000000080053720       0x20 build/game/unk_05ACB0.o
                0x0000000080053720                D_80053720
                0x0000000080053724                D_80053724
                0x0000000080053728                D_80053728
                0x000000008005372c                D_8005372C
                0x0000000080053730                D_80053730
                0x0000000080053734                D_80053734
 build/game/unk_05AE00.o(.rodata)
 build/game/unk_05B1E0.o(.rodata)
 .rodata        0x0000000080053740       0x20 build/game/unk_05B1E0.o
                0x0000000080053740                D_80053740
                0x0000000080053744                D_80053744
                0x0000000080053748                D_80053748
                0x000000008005374c                D_8005374C
                0x0000000080053750                D_80053750
 build/game/truncf.o(.rodata)
 build/game/unk_05C440.o(.rodata)
 build/game/bondview.o(.rodata)
 .rodata        0x0000000080053760      0xcc0 build/game/bondview.o
                0x0000000080053bf4                aD_9
                0x0000000080053bf8                aSD
                0x0000000080053c00                aSDS
                0x0000000080053c0c                aSD_0
                0x0000000080053c14                D_80053C14
                0x0000000080053c18                D_80053C18
                0x0000000080053c1c                D_80053C1C
                0x0000000080053c20                D_80053C20
                0x0000000080053c24                D_80053C24
                0x0000000080053c28                D_80053C28
                0x0000000080053c2c                D_80053C2C
                0x0000000080053c30                D_80053C30
                0x0000000080053c34                D_80053C34
                0x0000000080053c38                D_80053C38
                0x0000000080053c3c                D_80053C3C
                0x0000000080053c40                D_80053C40
                0x0000000080053c44                D_80053C44
                0x0000000080053c48                D_80053C48
                0x0000000080053c4c                D_80053C4C
                0x0000000080053c50                D_80053C50
                0x0000000080053c54                D_80053C54
                0x0000000080053c58                D_80053C58
                0x0000000080053c5c                D_80053C5C
                0x0000000080053c60                D_80053C60
                0x0000000080053c64                D_80053C64
                0x0000000080053c68                D_80053C68
                0x0000000080053c6c                D_80053C6C
                0x0000000080053c70                D_80053C70
                0x0000000080053c74                D_80053C74
                0x0000000080053c78                D_80053C78
                0x0000000080053c7c                D_80053C7C
                0x0000000080053c80                D_80053C80
                0x0000000080053c84                D_80053C84
                0x0000000080053c88                D_80053C88
                0x0000000080053c8c                D_80053C8C
                0x0000000080053c90                D_80053C90
                0x0000000080053c94                D_80053C94
                0x0000000080053c98                D_80053C98
                0x0000000080053c9c                D_80053C9C
                0x0000000080053ca0                D_80053CA0
                0x0000000080053ca4                D_80053CA4
                0x0000000080053ca8                D_80053CA8
                0x0000000080053cac                D_80053CAC
                0x0000000080053cb0                jpt_player_thrown_object
                0x0000000080053d3c                jpt_temp_obj_for_itemtype
                0x0000000080053dc8                D_80053DC8
                0x0000000080053dcc                D_80053DCC
                0x0000000080053dd0                D_80053DD0
                0x0000000080053dd4                D_80053DD4
                0x0000000080053dd8                D_80053DD8
                0x0000000080053ddc                D_80053DDC
                0x0000000080053de0                D_80053DE0
                0x0000000080053de4                D_80053DE4
                0x0000000080053de8                D_80053DE8
                0x0000000080053dec                D_80053DEC
                0x0000000080053df0                D_80053DF0
                0x0000000080053df4                D_80053DF4
                0x0000000080053df8                D_80053DF8
                0x0000000080053dfc                D_80053DFC
                0x0000000080053e00                D_80053E00
                0x0000000080053e04                D_80053E04
                0x0000000080053e08                D_80053E08
                0x0000000080053e0c                D_80053E0C
                0x0000000080053e10                D_80053E10
                0x0000000080053e14                D_80053E14
                0x0000000080053e18                D_80053E18
                0x0000000080053e1c                D_80053E1C
                0x0000000080053e20                D_80053E20
                0x0000000080053e24                D_80053E24
                0x0000000080053e28                D_80053E28
                0x0000000080053e2c                D_80053E2C
                0x0000000080053e30                D_80053E30
                0x0000000080053e34                D_80053E34
                0x0000000080053e38                jpt_weapon_bullet_type
                0x0000000080053e88                D_80053E88
                0x0000000080053e8c                D_80053E8C
                0x0000000080053e90                D_80053E90
                0x0000000080053e94                D_80053E94
                0x0000000080053e98                D_80053E98
                0x0000000080053e9c                D_80053E9C
                0x0000000080053ea0                D_80053EA0
                0x0000000080053ea4                D_80053EA4
                0x0000000080053ea8                D_80053EA8
                0x0000000080053eac                D_80053EAC
                0x0000000080053eb0                D_80053EB0
                0x0000000080053eb4                D_80053EB4
                0x0000000080053eb8                D_80053EB8
                0x0000000080053ebc                D_80053EBC
                0x0000000080053ec0                D_80053EC0
                0x0000000080053ec4                D_80053EC4
                0x0000000080053ec8                D_80053EC8
                0x0000000080053ecc                D_80053ECC
                0x0000000080053ed0                D_80053ED0
                0x0000000080053ed4                D_80053ED4
                0x0000000080053ed8                D_80053ED8
                0x0000000080053edc                D_80053EDC
                0x0000000080053ee0                D_80053EE0
                0x0000000080053ee4                D_80053EE4
                0x0000000080053ee8                D_80053EE8
                0x0000000080053eec                D_80053EEC
                0x0000000080053ef0                D_80053EF0
                0x0000000080053ef4                D_80053EF4
                0x0000000080053ef8                D_80053EF8
                0x0000000080053efc                D_80053EFC
                0x0000000080053f00                D_80053F00
                0x0000000080053f04                D_80053F04
                0x0000000080053f08                D_80053F08
                0x0000000080053f0c                D_80053F0C
                0x0000000080053f10                D_80053F10
                0x0000000080053f14                D_80053F14
                0x0000000080053f18                D_80053F18
                0x0000000080053f1c                D_80053F1C
                0x0000000080053f20                D_80053F20
                0x0000000080053f24                jpt_70098CF8
                0x0000000080054084                jpt_70098F10
                0x0000000080054170                D_80054170
                0x0000000080054174                D_80054174
                0x0000000080054178                D_80054178
                0x000000008005417c                D_8005417C
                0x0000000080054180                D_80054180
                0x0000000080054184                D_80054184
                0x0000000080054188                D_80054188
                0x000000008005418c                D_8005418C
                0x0000000080054190                D_80054190
                0x0000000080054194                jpt_70099D7C
                0x000000008005428c                D_8005428C
                0x0000000080054290                D_80054290
                0x0000000080054294                jpt_7009A0D4
                0x000000008005438c                D_8005438C
                0x0000000080054390                D_80054390
                0x0000000080054394                D_80054394
                0x0000000080054398                D_80054398
                0x000000008005439c                D_8005439C
                0x00000000800543a0                D_800543A0
                0x00000000800543a4                D_800543A4
                0x00000000800543a8                D_800543A8
                0x00000000800543ac                D_800543AC
                0x00000000800543b0                D_800543B0
                0x00000000800543b4                D_800543B4
                0x00000000800543b8                D_800543B8
                0x00000000800543bc                D_800543BC
                0x00000000800543c0                D_800543C0
                0x00000000800543c4                D_800543C4
                0x00000000800543c8                D_800543C8
                0x00000000800543cc                D_800543CC
                0x00000000800543d0                D_800543D0
                0x00000000800543d4                D_800543D4
                0x00000000800543d8                expended_shell_initial_gravity_modifier_pistol
                0x00000000800543dc                D_800543DC
                0x00000000800543e0                D_800543E0
                0x00000000800543e4                D_800543E4
                0x00000000800543e8                D_800543E8
                0x00000000800543ec                D_800543EC
                0x00000000800543f0                D_800543F0
                0x00000000800543f4                D_800543F4
                0x00000000800543f8                D_800543F8
                0x00000000800543fc                D_800543FC
                0x0000000080054400                expended_shell_initial_gravity_modifier_non_pistol
                0x0000000080054404                expended_shell_initial_gravity_modifier_all
                0x0000000080054408                D_80054408
                0x000000008005440c                D_8005440C
                0x0000000080054410                D_80054410
 build/game/objecthandler.o(.rodata)
 .rodata        0x0000000080054420      0x1e0 build/game/objecthandler.o
                0x0000000080054420                aDrawjointlistNoGfxlist
                0x000000008005443c                aDrawjointlistNoObject0xX
                0x0000000080054460                aDrawjointlistObjectNotInitialised0
                0x0000000080054490                jpt_7009F09C
                0x00000000800544e4                jpt_7009F224
                0x0000000080054538                obj_table_jointlist
                0x0000000080054598                jpt_damage_detail
                0x00000000800545f8                D_800545F8
 build/game/objecthandler_2.o(.rodata)
 .rodata        0x0000000080054600      0x990 build/game/objecthandler_2.o
                0x0000000080054600                aGetsubmatrixNoObjinst
                0x000000008005461c                aGetsubmatrixObjinstHasNoObject
                0x0000000080054644                aGetpartoffsetNoObjinst
                0x0000000080054660                aGetpartoffsetNoPartdesc
                0x000000008005467c                aSetpartoffsetNoObjinst
                0x0000000080054698                aSetpartoffsetNoPartdesc
                0x00000000800546b4                aGetsuboffsetNoObjinst
                0x00000000800546d0                aGetsuboffsetObjinstHasNoObject
                0x00000000800546f8                aSetsuboffsetNoObjinst
                0x0000000080054714                aSetsuboffsetObjinstHasNoObject
                0x000000008005473c                aGetsubrotyNoObjinst
                0x0000000080054754                aGetsubrotyObjinstHasNoObject
                0x0000000080054778                aGetsubrotyObjinstHasNoRootPart
                0x00000000800547a0                aSetsubrotyNoObjinst
                0x00000000800547b8                aSetsubrotyObjinstHasNoObject
                0x00000000800547dc                aSetsubrotyObjinstHasNoRootPart
                0x0000000080054804                aGetjointsizeNoObjinst
                0x0000000080054820                aGetinstsizeNoObjinst
                0x000000008005483c                aGetinstsizeNoObjdesc
                0x0000000080054858                aSubcalcposNoObjanim
                0x0000000080054874                aSubcalcposNoObjdesc
                0x0000000080054890                aInstcalcmatricesNoObjinst
                0x00000000800548b0                aInstcalcmatricesNoBasemtx
                0x00000000800548d0                aInstcalcmatricesNoMtxlist
                0x00000000800548f0                aSubcalcmatricesNoObjanim
                0x0000000080054910                aSubcalcmatricesNoBasemtx
                0x0000000080054930                aSubcalcmatricesNoMtxlist
                0x0000000080054950                aSubcalcmatricesNoAttachForObjinst
                0x000000008005497c                aSubcalcmatricesFrameaOutOfRange
                0x00000000800549a4                aSubcalcmatricesFramebOutOfRange
                0x00000000800549cc                aSubcalcmatricesNoAnim2
                0x00000000800549e8                aSubcalcmatricesFrame2aOutOfRange
                0x0000000080054a10                aSubcalcmatricesFrame2bOutOfRange
                0x0000000080054a38                aDorottexNoVtxAllocator
                0x0000000080054a58                aDotubeNoVtxAllocator
                0x0000000080054a74                aDogfnegxNoVtxAllocator
                0x0000000080054a94                aDoshadowNoVtxAllocator
                0x0000000080054ab4                aSubdrawNoGfxlist
                0x0000000080054acc                aSubdrawObjectNotInitialised0xX
                0x0000000080054af8                jpt_obj_struct_microcode_id
                0x0000000080054b58                D_80054B58
                0x0000000080054b5c                D_80054B5C
                0x0000000080054b60                jpt_getjointsize
                0x0000000080054bb4                D_80054BB4
                0x0000000080054bb8                D_80054BB8
                0x0000000080054bbc                D_80054BBC
                0x0000000080054bc0                D_80054BC0
                0x0000000080054bc4                D_80054BC4
                0x0000000080054bc8                D_80054BC8
                0x0000000080054bcc                D_80054BCC
                0x0000000080054bd0                D_80054BD0
                0x0000000080054bd4                D_80054BD4
                0x0000000080054bd8                D_80054BD8
                0x0000000080054bdc                D_80054BDC
                0x0000000080054be0                D_80054BE0
                0x0000000080054be4                D_80054BE4
                0x0000000080054be8                D_80054BE8
                0x0000000080054bec                D_80054BEC
                0x0000000080054bf0                D_80054BF0
                0x0000000080054bf4                D_80054BF4
                0x0000000080054bf8                D_80054BF8
                0x0000000080054bfc                D_80054BFC
                0x0000000080054c00                D_80054C00
                0x0000000080054c04                D_80054C04
                0x0000000080054c08                D_80054C08
                0x0000000080054c0c                D_80054C0C
                0x0000000080054c10                D_80054C10
                0x0000000080054c14                D_80054C14
                0x0000000080054c18                D_80054C18
                0x0000000080054c1c                D_80054C1C
                0x0000000080054c20                jpt_700A2E24
                0x0000000080054c80                jpt_700A2F3C
                0x0000000080054ce0                jpt_700A3050
                0x0000000080054d40                D_80054D40
                0x0000000080054d44                D_80054D44
                0x0000000080054d48                D_80054D48
                0x0000000080054d4c                D_80054D4C
                0x0000000080054d50                D_80054D50
                0x0000000080054d54                jpt_700A8494
                0x0000000080054db4                jpt_700A92F4
                0x0000000080054e14                jpt_700A95A0
                0x0000000080054e74                jpt_700A9A90
                0x0000000080054ed4                jpt_700A9CB0
                0x0000000080054f34                jpt_700AA050
 build/game/othermodemicrocode.o(.rodata)
 .rodata        0x0000000080054f90       0x10 build/game/othermodemicrocode.o
                0x0000000080054f90                D_80054F90
                0x0000000080054f94                D_80054F94
                0x0000000080054f98                D_80054F98
                0x0000000080054f9c                D_80054F9C
 build/game/bond.o(.rodata)
 .rodata        0x0000000080054fa0      0x340 build/game/bond.o
                0x0000000080054fa0                D_80054FA0
                0x0000000080054fa4                D_80054FA4
                0x0000000080054fa8                D_80054FA8
                0x0000000080054fac                D_80054FAC
                0x0000000080054fb0                D_80054FB0
                0x0000000080054fb4                D_80054FB4
                0x0000000080054fb8                D_80054FB8
                0x0000000080054fbc                D_80054FBC
                0x0000000080054fc0                a8s
                0x0000000080054fc4                aX4_0f
                0x0000000080054fcc                aY4_0f
                0x0000000080054fd4                aZ4_0f
                0x0000000080054fdc                aS3d
                0x0000000080054fe4                jpt_700ADD28
                0x0000000080055008                jpt_700ADE1C
                0x000000008005502c                D_8005502C
                0x0000000080055030                D_80055030
                0x0000000080055034                D_80055034
                0x0000000080055038                D_80055038
                0x000000008005503c                D_8005503C
                0x0000000080055040                D_80055040
                0x0000000080055044                D_80055044
                0x0000000080055048                D_80055048
                0x000000008005504c                D_8005504C
                0x0000000080055050                D_80055050
                0x0000000080055054                D_80055054
                0x0000000080055058                D_80055058
                0x000000008005505c                D_8005505C
                0x0000000080055060                D_80055060
                0x0000000080055064                D_80055064
                0x0000000080055068                D_80055068
                0x000000008005506c                D_8005506C
                0x0000000080055070                D_80055070
                0x0000000080055074                D_80055074
                0x0000000080055078                D_80055078
                0x000000008005507c                final
                0x0000000080055080                D_80055080
                0x0000000080055084                D_80055084
                0x0000000080055088                D_80055088
                0x000000008005508c                D_8005508C
                0x0000000080055090                D_80055090
                0x0000000080055094                D_80055094
                0x0000000080055098                D_80055098
                0x000000008005509c                D_8005509C
                0x00000000800550a0                D_800550A0
                0x00000000800550a4                D_800550A4
                0x00000000800550a8                D_800550A8
                0x00000000800550ac                D_800550AC
                0x00000000800550b0                D_800550B0
                0x00000000800550b4                D_800550B4
                0x00000000800550b8                D_800550B8
                0x00000000800550bc                D_800550BC
                0x00000000800550c0                D_800550C0
                0x00000000800550c4                D_800550C4
                0x00000000800550c8                D_800550C8
                0x00000000800550cc                D_800550CC
                0x00000000800550d0                D_800550D0
                0x00000000800550d4                firstperson_weapon_movement_restrictor
                0x00000000800550d8                D_800550D8
                0x00000000800550dc                D_800550DC
                0x00000000800550e0                D_800550E0
                0x00000000800550e4                D_800550E4
                0x00000000800550e8                D_800550E8
                0x00000000800550ec                D_800550EC
                0x00000000800550f0                player_gravity_modifier
                0x00000000800550f4                player_view_gravity_modifier
                0x00000000800550f8                D_800550F8
                0x00000000800550fc                D_800550FC
                0x0000000080055100                D_80055100
                0x0000000080055104                D_80055104
                0x0000000080055108                D_80055108
                0x000000008005510c                D_8005510C
                0x0000000080055110                D_80055110
                0x0000000080055114                D_80055114
                0x0000000080055118                D_80055118
                0x000000008005511c                D_8005511C
                0x0000000080055120                D_80055120
                0x0000000080055124                D_80055124
                0x0000000080055128                D_80055128
                0x000000008005512c                D_8005512C
                0x0000000080055130                D_80055130
                0x0000000080055134                D_80055134
                0x0000000080055138                D_80055138
                0x000000008005513c                D_8005513C
                0x0000000080055140                D_80055140
                0x0000000080055144                D_80055144
                0x0000000080055148                D_80055148
                0x000000008005514c                D_8005514C
                0x0000000080055150                D_80055150
                0x0000000080055154                D_80055154
                0x0000000080055158                D_80055158
                0x000000008005515c                D_8005515C
                0x0000000080055160                D_80055160
                0x0000000080055164                D_80055164
                0x0000000080055168                D_80055168
                0x000000008005516c                D_8005516C
                0x0000000080055170                D_80055170
                0x0000000080055174                D_80055174
                0x0000000080055178                D_80055178
                0x000000008005517c                D_8005517C
                0x0000000080055180                D_80055180
                0x0000000080055184                D_80055184
                0x0000000080055188                D_80055188
                0x000000008005518c                D_8005518C
                0x0000000080055190                D_80055190
                0x0000000080055194                D_80055194
                0x0000000080055198                D_80055198
                0x000000008005519c                D_8005519C
                0x00000000800551a0                D_800551A0
                0x00000000800551a4                D_800551A4
                0x00000000800551a8                D_800551A8
                0x00000000800551ac                D_800551AC
                0x00000000800551b0                D_800551B0
                0x00000000800551b4                D_800551B4
                0x00000000800551b8                D_800551B8
                0x00000000800551bc                D_800551BC
                0x00000000800551c0                D_800551C0
                0x00000000800551c4                D_800551C4
                0x00000000800551c8                D_800551C8
                0x00000000800551cc                D_800551CC
                0x00000000800551d0                D_800551D0
                0x00000000800551d4                D_800551D4
                0x00000000800551d8                D_800551D8
                0x00000000800551dc                D_800551DC
                0x00000000800551e0                D_800551E0
                0x00000000800551e4                D_800551E4
                0x00000000800551e8                D_800551E8
                0x00000000800551ec                D_800551EC
                0x00000000800551f0                D_800551F0
                0x00000000800551f4                D_800551F4
                0x00000000800551f8                D_800551F8
                0x00000000800551fc                D_800551FC
                0x0000000080055200                D_80055200
                0x0000000080055204                D_80055204
                0x0000000080055208                D_80055208
                0x000000008005520c                D_8005520C
                0x0000000080055210                D_80055210
                0x0000000080055214                D_80055214
                0x0000000080055218                D_80055218
                0x000000008005521c                D_8005521C
                0x0000000080055220                D_80055220
                0x0000000080055224                D_80055224
                0x0000000080055228                D_80055228
                0x000000008005522c                D_8005522C
                0x0000000080055230                D_80055230
                0x0000000080055234                D_80055234
                0x0000000080055238                D_80055238
                0x000000008005523c                D_8005523C
                0x0000000080055240                D_80055240
                0x0000000080055244                D_80055244
                0x0000000080055248                D_80055248
                0x000000008005524c                D_8005524C
                0x0000000080055250                D_80055250
                0x0000000080055254                D_80055254
                0x0000000080055258                D_80055258
                0x000000008005525c                D_8005525C
                0x0000000080055260                D_80055260
                0x0000000080055264                D_80055264
                0x0000000080055268                D_80055268
                0x000000008005526c                D_8005526C
                0x0000000080055270                D_80055270
                0x0000000080055274                D_80055274
                0x0000000080055278                D_80055278
                0x000000008005527c                D_8005527C
                0x0000000080055280                D_80055280
                0x0000000080055284                D_80055284
                0x0000000080055288                D_80055288
                0x000000008005528c                D_8005528C
                0x0000000080055290                jpt_700BCB10
                0x00000000800552ac                D_800552AC
                0x00000000800552b0                pi_800552B0
                0x00000000800552b4                twopi_800552B4
                0x00000000800552b8                D_800552B8
                0x00000000800552bc                D_800552BC
                0x00000000800552c0                D_800552C0
                0x00000000800552c4                D_800552C4
                0x00000000800552c8                D_800552C8
                0x00000000800552cc                D_800552CC
                0x00000000800552d0                D_800552D0
 build/game/unk_08DBB0.o(.rodata)
 .rodata        0x00000000800552e0       0x60 build/game/unk_08DBB0.o
                0x00000000800552e0                D_800552E0
                0x00000000800552e4                D_800552E4
                0x00000000800552e8                D_800552E8
                0x00000000800552ec                D_800552EC
                0x00000000800552f0                D_800552F0
                0x00000000800552f4                D_800552F4
                0x00000000800552f8                D_800552F8
                0x00000000800552fc                master_player_perspective
                0x0000000080055300                D_80055300
                0x0000000080055304                D_80055304
                0x0000000080055308                D_80055308
                0x000000008005530c                D_8005530C
                0x0000000080055310                D_80055310
                0x0000000080055314                D_80055314
                0x0000000080055318                D_80055318
                0x000000008005531c                D_8005531C
                0x0000000080055320                D_80055320
                0x0000000080055324                D_80055324
                0x0000000080055328                D_80055328
                0x000000008005532c                D_8005532C
                0x0000000080055330                D_80055330
                0x0000000080055334                D_80055334
                0x0000000080055338                D_80055338
                0x000000008005533c                D_8005533C
 build/game/debugmenu_08FE00.o(.rodata)
 .rodata        0x0000000080055340       0x30 build/game/debugmenu_08FE00.o
                0x0000000080055340                aMenu_cErrorTriedToCallFont_makegt
 build/game/debugmenu_090490.o(.rodata)
 .rodata        0x0000000080055370      0x4e0 build/game/debugmenu_090490.o
                0x00000000800556fc                jpt_700C46A0
                0x0000000080055830                jpt_700C4DD8
 build/game/unk_091080.o(.rodata)
 .rodata        0x0000000080055850       0x20 build/game/unk_091080.o
                0x0000000080055850                D_80055850
                0x0000000080055854                D_80055854
                0x0000000080055858                D_80055858
                0x000000008005585c                D_8005585C
                0x0000000080055860                D_80055860
 build/game/cheat_buttons_objectrelated.o(.rodata)
 .rodata        0x0000000080055870     0x1ca0 build/game/cheat_buttons_objectrelated.o
                0x0000000080057290                PADDINGHACKS
                0x00000000800572b0                jpt_700C5B38
                0x00000000800573d8                finalamount
                0x00000000800573dc                jpt_700C6400
                0x0000000080057504                D_80057504
 build/game/unk_092890.o(.rodata)
 build/game/unk_092E50.o(.rodata)
 .rodata        0x0000000080057510       0x10 build/game/unk_092E50.o
                0x0000000080057510                D_80057510
                0x0000000080057514                D_80057514
                0x0000000080057518                D_80057518
 build/game/unk_093880.o(.rodata)
 .rodata        0x0000000080057520      0x190 build/game/unk_093880.o
                0x0000000080057520                D_80057520
                0x0000000080057524                D_80057524
                0x0000000080057528                D_80057528
                0x000000008005752c                D_8005752C
                0x0000000080057530                D_80057530
                0x0000000080057534                D_80057534
                0x0000000080057538                D_80057538
                0x000000008005753c                D_8005753C
                0x0000000080057540                D_80057540
                0x0000000080057544                jpt_700C8968
                0x0000000080057584                D_80057584
                0x0000000080057588                D_80057588
                0x000000008005758c                D_8005758C
                0x0000000080057590                jpt_700C9D3C
                0x00000000800575d0                D_800575D0
                0x00000000800575d4                D_800575D4
                0x00000000800575d8                D_800575D8
                0x00000000800575dc                D_800575DC
                0x00000000800575e0                D_800575E0
                0x00000000800575e4                D_800575E4
                0x00000000800575e8                D_800575E8
                0x00000000800575ec                D_800575EC
                0x00000000800575f0                D_800575F0
                0x00000000800575f4                D_800575F4
                0x00000000800575f8                D_800575F8
                0x00000000800575fc                D_800575FC
                0x0000000080057600                D_80057600
                0x0000000080057604                D_80057604
                0x0000000080057608                D_80057608
                0x000000008005760c                D_8005760C
                0x0000000080057610                D_80057610
                0x0000000080057614                D_80057614
                0x0000000080057618                D_80057618
                0x000000008005761c                D_8005761C
                0x0000000080057620                D_80057620
                0x0000000080057624                D_80057624
                0x0000000080057628                D_80057628
                0x000000008005762c                jpt_700CF1AC
 build/game/unk_09B600.o(.rodata)
 build/game/unk_09B740.o(.rodata)
 build/game/unk_09B7A0.o(.rodata)
 build/game/unk_09C250.o(.rodata)
 .rodata        0x00000000800576b0       0x60 build/game/unk_09C250.o
                0x00000000800576b0                D_800576B0
                0x00000000800576b4                D_800576B4
                0x00000000800576b8                D_800576B8
                0x00000000800576bc                D_800576BC
                0x00000000800576c0                D_800576C0
                0x00000000800576c4                D_800576C4
                0x00000000800576c8                D_800576C8
                0x00000000800576cc                D_800576CC
                0x00000000800576d0                D_800576D0
                0x00000000800576d4                D_800576D4
                0x00000000800576d8                D_800576D8
                0x00000000800576dc                D_800576DC
                0x00000000800576e0                D_800576E0
                0x00000000800576e4                D_800576E4
                0x00000000800576e8                D_800576E8
                0x00000000800576ec                D_800576EC
                0x00000000800576f0                D_800576F0
                0x00000000800576f4                D_800576F4
                0x00000000800576f8                D_800576F8
                0x00000000800576fc                D_800576FC
                0x0000000080057700                D_80057700
                0x0000000080057704                D_80057704
                0x0000000080057708                D_80057708
                0x000000008005770c                D_8005770C
 build/game/unk_0A1DA0.o(.rodata)
 .rodata        0x0000000080057710       0x50 build/game/unk_0A1DA0.o
                0x0000000080057710                D_80057710
                0x0000000080057714                D_80057714
                0x0000000080057718                D_80057718
                0x000000008005771c                D_8005771C
                0x0000000080057720                D_80057720
                0x0000000080057724                D_80057724
                0x0000000080057728                D_80057728
                0x000000008005772c                D_8005772C
                0x0000000080057730                D_80057730
                0x0000000080057734                D_80057734
                0x0000000080057738                D_80057738
                0x000000008005773c                D_8005773C
                0x0000000080057740                D_80057740
                0x0000000080057748                D_80057748
                0x000000008005774c                D_8005774C
                0x0000000080057750                D_80057750
                0x0000000080057754                D_80057754
 build/game/watch.o(.rodata)
 .rodata        0x0000000080057760      0xe40 build/game/watch.o
                0x0000000080057760                aDD
                0x0000000080057768                aDDDF
                0x0000000080057778                aA
                0x0000000080057780                aB
                0x0000000080057788                aZ
                0x0000000080057790                aL
                0x0000000080057798                aR
                0x00000000800577a0                aC
                0x00000000800577a8                D_800577A8
                0x00000000800577b0                aS_0
                0x00000000800577b8                a3d
                0x00000000800577c0                D_800577C0
                0x00000000800577c4                D_800577C4
                0x0000000080057fc0                D_80057FC0
                0x0000000080058440                D_80058440
                0x0000000080058444                D_80058444
                0x0000000080058448                aC_2
                0x0000000080058450                D_80058450
                0x0000000080058454                D_80058454
                0x0000000080058458                D_80058458
                0x000000008005845c                D_8005845C
                0x0000000080058460                D_80058460
                0x0000000080058464                D_80058464
                0x0000000080058468                D_80058468
                0x000000008005846c                D_8005846C
                0x0000000080058470                D_80058470
                0x0000000080058474                D_80058474
                0x0000000080058478                D_80058478
                0x000000008005847c                D_8005847C
                0x0000000080058480                D_80058480
                0x0000000080058484                D_80058484
                0x0000000080058488                D_80058488
                0x000000008005848c                D_8005848C
                0x0000000080058490                D_80058490
                0x0000000080058494                D_80058494
                0x0000000080058498                D_80058498
                0x000000008005849c                D_8005849C
                0x00000000800584a0                D_800584A0
                0x00000000800584a4                D_800584A4
                0x00000000800584a8                D_800584A8
                0x00000000800584ac                D_800584AC
                0x00000000800584b0                D_800584B0
                0x00000000800584b4                D_800584B4
                0x00000000800584b8                D_800584B8
                0x00000000800584bc                D_800584BC
                0x00000000800584c0                D_800584C0
                0x00000000800584c4                D_800584C4
                0x00000000800584c8                D_800584C8
                0x00000000800584cc                jpt_700DAD2C
                0x00000000800584e0                jpt_700DADB0
                0x0000000080058508                D_80058508
                0x000000008005850c                D_8005850C
                0x0000000080058510                D_80058510
                0x0000000080058514                D_80058514
                0x0000000080058518                D_80058518
                0x000000008005851c                D_8005851C
                0x0000000080058520                D_80058520
                0x0000000080058524                D_80058524
                0x0000000080058528                D_80058528
                0x000000008005852c                D_8005852C
                0x0000000080058530                D_80058530
                0x0000000080058534                D_80058534
                0x0000000080058538                D_80058538
                0x000000008005853c                D_8005853C
                0x0000000080058540                D_80058540
                0x0000000080058544                D_80058544
                0x0000000080058548                D_80058548
                0x000000008005854c                D_8005854C
                0x0000000080058550                D_80058550
                0x0000000080058554                D_80058554
                0x0000000080058558                D_80058558
                0x000000008005855c                D_8005855C
                0x0000000080058560                D_80058560
                0x0000000080058564                D_80058564
                0x0000000080058568                D_80058568
                0x000000008005856c                D_8005856C
                0x0000000080058570                jpt_700E02E0
                0x0000000080058584                jpt_700E09F8
 build/game/textrelated.o(.rodata)
 build/game/stan.o(.rodata)
 .rodata        0x00000000800585a0       0x40 build/game/stan.o
                0x00000000800585a0                aCDCC
                0x00000000800585ac                aStan_c_debug
                0x00000000800585bc                aStanlinelog
                0x00000000800585cc                D_800585CC
                0x00000000800585d0                D_800585D0
                0x00000000800585d4                D_800585D4
                0x00000000800585d8                D_800585D8
                0x00000000800585dc                D_800585DC
 build/game/unk_0B3200.o(.rodata)
 .rodata        0x00000000800585e0       0x10 build/game/unk_0B3200.o
                0x00000000800585e0                D_800585E0
                0x00000000800585e4                D_800585E4
 build/game/bg.o(.rodata)
 .rodata        0x00000000800585f0      0x780 build/game/bg.o
                0x0000000080058c48                aPortD
                0x0000000080058c50                aRoomD
                0x0000000080058c58                jpt_700E883C
                0x0000000080058c7c                D_80058C7C
                0x0000000080058c80                jpt_700EC3D8
                0x0000000080058cb4                vis_command_jpt
                0x0000000080058d54                D_80058D54
                0x0000000080058d58                D_80058D58
                0x0000000080058d5c                D_80058D5C
                0x0000000080058d60                D_80058D60
 build/game/fog.o(.rodata)
 .rodata        0x0000000080058d70       0x10 build/game/fog.o
                0x0000000080058d70                default_near_fog
                0x0000000080058d74                D_80058D74
 build/game/lightfixture.o(.rodata)
 .rodata        0x0000000080058d80       0x20 build/game/lightfixture.o
                0x0000000080058d80                jpt_700EF63C
 build/game/unk_0BC530.o(.rodata)
 build/game/ob.o(.rodata)
 .rodata        0x0000000080058da0     0x28e0 build/game/ob.o
                0x000000008005b66c                rz_header_1
                0x000000008005b670                rz_header_2
                0x000000008005b674                aOb_c_debug
 build/game/dyn.o(.rodata)
 .rodata        0x000000008005b680       0x30 build/game/dyn.o
                0x000000008005b68c                aMgfx
                0x000000008005b694                aMgfx_1
                0x000000008005b69c                aMvtx
                0x000000008005b6a4                aMvtx_0
 build/game/lvl.o(.rodata)
 .rodata        0x000000008005b6b0       0xa0 build/game/lvl.o
                0x000000008005b6b0                aLv_c_debug
                0x000000008005b6bc                aStanshow_
                0x000000008005b6c8                aStanshow__5
                0x000000008005b6d4                ::aStanshow(void)
                0x000000008005b6e0                aStanshow__1
                0x000000008005b6ec                aStanshow__2
                0x000000008005b6f8                aStanshow__3
                0x000000008005b704                aOneMinuteLeft
                0x000000008005b714                aSetdetailDDDDDDDDD
                0x000000008005b73c                D_8005B73C
                0x000000008005b740                D_8005B740
                0x000000008005b744                D_8005B744
                0x000000008005b748                D_8005B748
                0x000000008005b74c                D_8005B74C
 build/game/lvl_2.o(.rodata)
 .rodata        0x000000008005b750       0x40 build/game/lvl_2.o
                0x000000008005b750                aReplayDemo_D
                0x000000008005b760                aReplayDemo_D_1
                0x000000008005b770                aReplayDemo_load
 build/game/unk_0C0A70.o(.rodata)
 build/game/mp_music.o(.rodata)
 .rodata        0x000000008005b790       0xf0 build/game/mp_music.o
                0x000000008005b790                jpt_700F4B9C
                0x000000008005b7ac                jpt_700F4BBC
                0x000000008005b7c8                jpt_700F4C70
                0x000000008005b7e4                D_8005B7E4
                0x000000008005b7e8                jpt_700F4D60
                0x000000008005b804                jpt_700F4DF8
                0x000000008005b820                jpt_700F4F30
                0x000000008005b83c                jpt_700F4FFC
                0x000000008005b858                jpt_700F50A4
 build/game/lvl_text.o(.rodata)
 .rodata        0x000000008005b880      0x3a0 build/game/lvl_text.o
                0x000000008005bb60                jpt_stage_text
 build/game/mp_watch.o(.rodata)
 .rodata        0x000000008005bc20      0x100 build/game/mp_watch.o
                0x000000008005bc20                ascii_MP_watch_menu_percentd
                0x000000008005bc24                ascii_MP_watch_menu_BLANK
                0x000000008005bc28                ascii_MP_watch_menu_left_chevron
                0x000000008005bc2c                ascii_MP_watch_menu_right_chevron
                0x000000008005bc30                ascii_pnum_KILLS
                0x000000008005bc38                ascii_pnum_LOSSES
                0x000000008005bc40                jpt_MP_menu_page_adv_right
                0x000000008005bc60                jpt_MP_menu_page_adv_left
                0x000000008005bc80                D_8005BC80
                0x000000008005bc84                D_8005BC84
                0x000000008005bc88                jpt_MP_overlays_scoring_scenario_0
                0x000000008005bca0                jpt_MP_overlays_scoring
                0x000000008005bcc0                jpt_MP_overlays_scoring_scenario_1
                0x000000008005bce0                jpt_MP_overlays_scoring_scenario_2
                0x000000008005bd00                jpt_MP_menu_window_text
 build/game/radar.o(.rodata)
 .rodata        0x000000008005bd20       0x10 build/game/radar.o
                0x000000008005bd20                D_8005BD20
                0x000000008005bd24                D_8005BD24
 build/game/mp_weapon.o(.rodata)
 build/game/image.o(.rodata)
 .rodata        0x000000008005bd30      0x150 build/game/image.o
                0x000000008005bd30                jpt_700FBF84
                0x000000008005bd58                jpt_700FC6F4
                0x000000008005bd7c                jpt_700FC7A4
                0x000000008005bda0                jpt_700FDA34
                0x000000008005bdc4                jpt_700FDD20
                0x000000008005bde8                jpt_700FE830
                0x000000008005be0c                jpt_700FEBEC
                0x000000008005be30                jpt_700FF5D0
                0x000000008005be64                jpt_700FF7D0
 build/game/image_bank.o(.rodata)
 build/game/unk_0CC4C0.o(.rodata)
 .rodata        0x000000008005be80      0x100 build/game/unk_0CC4C0.o
                0x000000008005bf1c                PADDINGHACKING
                0x000000008005bf20                tlb_ptr_DL_type_B1toC0
                0x000000008005bf60                tlb_ptr_C0_image_recall_types
 build/game/decompress.o(.rodata)
 .rodata        0x000000008005bf80       0x30 build/game/decompress.o
                0x000000008005bf80                rz_header_bytes
 build/game/zlib.o(.rodata)
 build/game/rsp.o(.rodata)
 .rodata        0x000000008005bfb0       0x10 build/game/rsp.o
 build/game/indy_comms.o(.rodata)
 .rodata        0x000000008005bfc0       0x30 build/game/indy_comms.o
 build/game/indy_0D0180.o(.rodata)
 build/game/game_debug.o(.rodata)
 .rodata        0x000000008005bff0       0x10 build/game/game_debug.o
 build/game/compiletime.o(.rodata)
 .rodata        0x000000008005c000       0x20 build/game/compiletime.o
 build/game/unk_0D1AC0.o(.rodata)
 build/game/viewport.o(.rodata)
 build/game/music_0D2720.o(.rodata)
 build/game/spectrum.o(.rodata)
 .rodata        0x000000008005c020      0x800 build/game/spectrum.o
                0x000000008005c114                aEmDataSpec_rom_seg_rz
                0x000000008005c12c                spectrum_op_table
                0x000000008005c52c                jpt_7010E33C
                0x000000008005c62c                jpt_7010FDE8
                0x000000008005c64c                jpt_7010FE20
                0x000000008005c66c                jpt_7010FE40
                0x000000008005c68c                jpt_701104EC
                0x000000008005c6ac                jpt_70112968
                0x000000008005c71c                jpt_70112990
 build/gspboot.o(.data)
 .data          0x000000008005c820      0x800 build/gspboot.o
                0x000000008005c820                gsp3DDataStart
 build/aspboot.o(.data)
 .data          0x000000008005d020      0x2c0 build/aspboot.o
                0x000000008005d020                aspMainDataStart
                [0x000000008008e360]                __ramPos = (__ramPos + SIZEOF (.csegment))
                0x0000000000c3c550                __csegtempPosEnd = (__csegtempPos + SIZEOF (.csegment))

.bss            0x000000008005d2e0    0x31080 load address 0x0000000000c3c550
 build/boot.o(.bss)
 build/init.o(.bss)
 .bss           0x000000008005d2e0      0x760 build/init.o
                0x000000008005d2e0                rmonThread
                0x000000008005d490                idleThread
                0x000000008005d640                mainThread
                0x000000008005d7f0                shedThread
                0x000000008005d9a0                gfxFrameMsgQ
                0x000000008005d9b8                gfxFrameMsgBuf
                0x000000008005da38                sched_cmdQ
 build/sched.o(.bss)
 .bss           0x000000008005da40      0x1b0 build/sched.o
                0x000000008005da40                sc
                0x000000008005db18                gfxClient
                0x000000008005db30                target_for_counters_maybe
                0x000000008005db40                dword_CODE_bss_8005DB40
 build/osMapTLB.o(.bss)
 build/tlb_manage.o(.bss)
 .bss           0x000000008005dbf0      0x8c0 build/tlb_manage.o
                0x000000008005dbf0                TLB_managment_table_start
                0x000000008005e3f0                TLB_manager_mapping_table_start
                0x000000008005e4a4                TLB_manager_mapping_table_end
                0x000000008005e4a8                ptr_TLBallocatedblock
 build/tlb_random.o(.bss)
 build/tlb_resolve.o(.bss)
 build/audi.o(.bss)
 .bss           0x000000008005e4b0      0xf40 build/audi.o
                0x000000008005e4b0                dword_CODE_bss_8005E4B0
                0x000000008005e4b8                dword_CODE_bss_8005E4B8
                0x000000008005e4c0                dword_CODE_bss_8005E4C0
                0x000000008005e4c4                dword_CODE_bss_8005E4C4
                0x000000008005e4c8                dword_CODE_bss_8005E4C8
                0x000000008005e4cc                dword_CODE_bss_8005E4CC
                0x000000008005e4d0                dword_CODE_bss_8005E4D0
                0x000000008005e4d8                dword_CODE_bss_8005E4D8
                0x000000008005e4e0                dword_CODE_bss_8005E4E0
                0x000000008005e518                _am
                0x000000008005e7a0                audi_client
                0x000000008005e7b0                dmaState_initialized
                0x000000008005e7b4                dmaState_firstUsed
                0x000000008005e7b8                dmaState_firstFree
                0x000000008005e7c0                dmaBuffs
                0x000000008005ecc0                minFrameSize
                0x000000008005ecc4                frameSize
                0x000000008005ecc8                maxFrameSize
                0x000000008005eccc                cmdLen
                0x000000008005ecd0                audDMAIOMesgBuf
                0x000000008005f2d0                audDMAMessageQ
                0x000000008005f2e8                audDMAMessageBuf
 build/speed_graph.o(.bss)
 .bss           0x000000008005f3f0     0x13f0 build/speed_graph.o
                0x000000008005f3f0                dword_CODE_bss_8005F3F0
                0x000000008005f400                displaylist_0
                0x000000008005fc50                displaylist_1
                0x00000000800604a0                displaylist_bank
                0x00000000800604a4                dword_CODE_bss_800604A4
                0x00000000800604a8                dword_CODE_bss_800604A8
                0x00000000800604ac                dword_CODE_bss_800604AC
                0x00000000800604b0                dword_CODE_bss_800604B0
                0x00000000800607b0                dword_CODE_bss_800607B0
                0x00000000800607b4                dword_CODE_bss_800607B4
                0x00000000800607b8                dword_CODE_bss_800607B8
                0x00000000800607bc                dword_CODE_bss_800607BC
                0x00000000800607c0                dword_CODE_bss_800607C0
                0x00000000800607c4                dword_CODE_bss_800607C4
                0x00000000800607c8                dword_CODE_bss_800607C8
                0x00000000800607cc                dword_CODE_bss_800607CC
                0x00000000800607d0                dword_CODE_bss_800607D0
                0x00000000800607d4                dword_CODE_bss_800607D4
                0x00000000800607d8                dword_CODE_bss_800607D8
                0x00000000800607dc                dword_CODE_bss_800607DC
 build/video.o(.bss)
 .bss           0x00000000800607e0       0xb0 build/video.o
                0x00000000800607e0                dword_CODE_bss_800607E0
                0x0000000080060820                m
                0x0000000080060824                word_CODE_bss_80060824
                0x0000000080060828                dword_CODE_bss_80060828
                0x0000000080060878                off_CODE_bss_80060878
                0x0000000080060879                off_CODE_bss_80060879
                0x000000008006087c                viMode
                0x0000000080060880                dword_CODE_bss_80060880
                0x0000000080060884                dword_CODE_bss_80060884
                0x0000000080060888                dword_CODE_bss_80060888
                0x000000008006088c                dword_CODE_bss_8006088C
 build/deb.o(.bss)
 .bss           0x0000000080060890     0x2e40 build/deb.o
                0x0000000080060890                dword_CODE_bss_80060890
                0x0000000080060c90                thread_video_manager_debugthread
                0x0000000080061340                tlbStack
                0x0000000080063640                tlbMesgQ
                0x0000000080063658                tlbMesgBuf
                0x000000008006365c                ptr_tlbthread_maybe
                0x0000000080063660                dword_CODE_bss_80063660
                0x0000000080063664                current_indy_read_buf_resourceID
                0x0000000080063668                ptr_indy_read_buf_string1
                0x000000008006366c                ptr_indy_read_buf_string2
                0x0000000080063670                indy_read_buffer
 build/debug_stuff_split.o(.bss)
 build/debug_getlastRA.o(.bss)
 build/ramrom.o(.bss)
 .bss           0x00000000800636d0       0x40 build/ramrom.o
                0x00000000800636d0                memoryMesgMB
                0x00000000800636e8                ptr_memorymsg
                0x00000000800636f0                memoryMesgQueue
 build/boss.o(.bss)
 build/music.o(.bss)
 .bss           0x0000000080063710      0x4a0 build/music.o
                0x0000000080063710                hp
                0x0000000080063720                ptr_sfx_buf
                0x0000000080063724                D_80063724
                0x0000000080063728                ptr_1st_music_ctrl_block
                0x000000008006372c                ptr_2nd_music_ctrl_block
                0x0000000080063730                ptr_3rd_music_ctrl_block
                0x0000000080063734                ptr_musicdatatable
                0x0000000080063738                D_80063738
                0x00000000800637b8                D_800637B8
                0x0000000080063836                D_80063836
                0x0000000080063838                D_80063838
                0x000000008006383c                D_8006383C
                0x0000000080063840                D_80063840
                0x0000000080063844                D_80063844
                0x0000000080063846                D_80063846
                0x0000000080063848                D_80063848
                0x000000008006384a                music1_length
                0x000000008006384c                music2_length
                0x000000008006384e                music3_length
                0x0000000080063850                music1_rate
                0x0000000080063854                music2_rate
                0x0000000080063858                music3_rate
                0x000000008006385c                D_8006385C
                0x0000000080063860                D_80063860
                0x0000000080063958                D_80063958
                0x0000000080063a50                D_80063A50
                0x0000000080063b50                D_80063B50
                0x0000000080063ba4                D_80063BA4
                0x0000000080063ba8                D_80063BA8
 build/sfx.o(.bss)
 build/memp.o(.bss)
 .bss           0x0000000080063bb0       0x70 build/memp.o
                0x0000000080063bb0                memory_bank_ptrs
                0x0000000080063bb8                D_80063BB8
                0x0000000080063bc0                D_80063BC0
                0x0000000080063bc4                D_80063BC4
                0x0000000080063bc8                D_80063BC8
                0x0000000080063bd0                D_80063BD0
                0x0000000080063bd4                D_80063BD4
                0x0000000080063bd8                D_80063BD8
                0x0000000080063be0                D_80063BE0
                0x0000000080063be4                D_80063BE4
                0x0000000080063be8                D_80063BE8
                0x0000000080063bf0                ptr_model_room_buf_pri
                0x0000000080063bf8                dword_CODE_bss_80063BF8
                0x0000000080063c1c                dword_CODE_bss_80063C1C
 build/mema.o(.bss)
 .bss           0x0000000080063c20     0x1010 build/mema.o
                0x0000000080063c20                ptr_model_room_buf_secondary
                0x0000000080063c24                size_modelroom_buf
                0x0000000080063c28                ptr_table_allocated_mem_blocks
                0x0000000080063c2c                dword_CODE_bss_80063C2C
                0x0000000080063c30                index_for_loadedroom
                0x0000000080063c34                dword_CODE_bss_80063C34
                0x0000000080063c38                ptr_first_entry_in_alloc_table
                0x0000000080063c3c                dword_CODE_bss_80063C3C
                0x0000000080063c40                dword_CODE_bss_80063C40
                0x0000000080063c44                dword_CODE_bss_80063C44
                0x0000000080063c48                dword_CODE_bss_80063C48
                0x0000000080064c08                dword_CODE_bss_80064C08
                0x0000000080064c10                dword_CODE_bss_80064C10
                0x0000000080064c18                dword_CODE_bss_80064C18
                0x0000000080064c1c                dword_CODE_bss_80064C1C
                0x0000000080064c20                dword_CODE_bss_80064C20
                0x0000000080064c24                dword_CODE_bss_80064C24
 build/random.o(.bss)
 build/token.o(.bss)
 .bss           0x0000000080064c30      0x280 build/token.o
                0x0000000080064c30                boot_token_from_indy
 build/stringhandler.o(.bss)
 build/sprintf.o(.bss)
 build/pi.o(.bss)
 .bss           0x0000000080064eb0       0x40 build/pi.o
                0x0000000080064eb0                piCmdBuf
                0x0000000080064ed0                piCmdQ
 build/vi.o(.bss)
 .bss           0x0000000080064ef0       0x40 build/vi.o
                0x0000000080064ef0                vi_c_debug_MSG
                0x0000000080064f10                vi_c_debug_MQ
 build/debugmenu.o(.bss)
 build/joy.o(.bss)
 .bss           0x0000000080064f30      0x670 build/joy.o
                0x0000000080064f30                controller_input_index
                0x0000000080065110                dword_CODE_bss_80065110
                0x0000000080065114                dword_CODE_bss_80065114
                0x0000000080065118                dword_CODE_bss_80065118
                0x000000008006511c                dword_CODE_bss_8006511C
                0x0000000080065120                dword_CODE_bss_80065120
                0x0000000080065124                dword_CODE_bss_80065124
                0x0000000080065128                dword_CODE_bss_80065128
                0x000000008006512c                dword_CODE_bss_8006512C
                0x0000000080065130                dword_code_bss_80065130
                0x0000000080065308                dword_CODE_bss_80065308
                0x000000008006530c                dword_CODE_bss_8006530C
                0x0000000080065310                dword_CODE_bss_80065310
                0x0000000080065314                dword_CODE_bss_80065314
                0x0000000080065318                dword_CODE_bss_80065318
                0x000000008006531c                dword_CODE_bss_8006531C
                0x0000000080065320                dword_CODE_bss_80065320
                0x0000000080065324                dword_CODE_bss_80065324
                0x0000000080065328                contdemoMesg
                0x0000000080065350                contdemoMesgMQ
                0x0000000080065368                cont1Mesg
                0x0000000080065370                cont1MesgMQ
                0x0000000080065388                cont2Mesg
                0x0000000080065390                cont2MesgMQ
                0x00000000800653a8                cont3Mesg
                0x00000000800653b0                cont3MesgMQ
                0x00000000800653c8                cont4Mesg
                0x00000000800653d0                cont4MesgMQ
                0x00000000800653e8                player1_controllerstatus
                0x00000000800653ec                player2_controllerstatus
                0x00000000800653f0                player3_controllerstatus
                0x00000000800653f4                player4_controllerstatus
                0x00000000800653f8                player1_controller_packet
 build/joy_rumble.o(.bss)
 .bss           0x00000000800655a0      0x240 build/joy_rumble.o
                0x00000000800655a0                rumble_off_player1_packet_buffer
                0x00000000800656a0                rumble_on_player_packet_buffers
                0x00000000800657a0                rumble_on_buffer
                0x00000000800657c0                rumble_off_buffer
 build/rmon.o(.bss)
 build/libultra/libultra.o(.bss)
 .bss           0x00000000800657e0     0x3990 build/libultra/libultra.o
                0x00000000800657e0                __osFinalRom
                0x00000000800657f0                viThread
                0x00000000800659a0                viThreadStack
                0x00000000800669a0                viEventQueue
                0x00000000800669b8                viEventBuf
                0x00000000800669d0                viRetraceMsg
                0x00000000800669e8                viCounterMsg
                0x0000000080066a00                retrace
                0x0000000080066a10                __osEventStateTab
                0x0000000080066a90                type
                0x0000000080066a90                tp
                0x0000000080066a94                flags
                0x0000000080066a98                t_ucode_boot
                0x0000000080066a9c                t_ucode_boot_size
                0x0000000080066aa0                t_ucode
                0x0000000080066aa4                t_ucode_size
                0x0000000080066aa8                t_ucode_data
                0x0000000080066aac                t_ucode_data_size
                0x0000000080066ab0                t_dram_stack
                0x0000000080066ab4                t_dram_stack_size
                0x0000000080066ab8                t_output_buff
                0x0000000080066abc                t_output_buff_size
                0x0000000080066ac0                t_data_ptr
                0x0000000080066ac4                t_data_size
                0x0000000080066ac8                t_yield_data_ptr
                0x0000000080066acc                t_yield_data_size
                0x0000000080066ad0                piThread
                0x0000000080066c80                piThreadStack
                0x0000000080067c80                pieventQueue
                0x0000000080067c98                piEventBuf
                0x0000000080067ca0                __osContPifRam
                0x0000000080067ce0                __osContLastCmd
                0x0000000080067ce1                __osMaxControllers
                0x0000000080067ce8                __osEepromTimer
                0x0000000080067d08                __osEepromTimerQ
                0x0000000080067d20                __osEepromTimerMsg
                0x0000000080067d24                padding_80067d24
                0x0000000080067d30                __osEepPifRam
                0x0000000080067d70                __osPfsPifRam
                0x0000000080067db0                __osSiAccessBuf
                0x0000000080067db8                __osSiAccessQueue
                0x0000000080067dd0                flt_CODE_bss_80067DD0
                0x0000000080067de0                flt_CODE_bss_80067DE0
                0x0000000080067df0                leoDiskStack
                0x0000000080068df0                __osBaseTimer
                0x0000000080068e10                __osCurrentTime
                0x0000000080068e18                __osBaseCounter
                0x0000000080068e1c                __osViIntrCount
                0x0000000080068e20                __osTimerCounter
                0x0000000080068e30                __osThreadSave
                0x0000000080068fe0                piAccessBuf
                0x0000000080068fe8                __osPiAccessQueue
                0x0000000080069000                LeoDiskHandle
                0x0000000080069074                __osDiskHandle
                0x0000000080069080                D_80069080
                0x0000000080069084                D_80069084
                0x0000000080069088                D_80069088
                0x000000008006908c                D_8006908C
                0x0000000080069090                D_80069090
                0x0000000080069094                D_80069094
                0x0000000080069098                D_80069098
                0x000000008006909c                D_8006909C
                0x00000000800690a0                D_800690a0
                0x00000000800690a4                D_800690a4
                0x00000000800690a8                D_800690a8
                0x00000000800690ac                D_800690ac
                0x00000000800690b0                D_800690b0
                0x00000000800690b4                D_800690b4
                0x00000000800690b8                D_800690b8
                0x00000000800690bc                D_800690BC
                0x00000000800690c0                D_800690c0
                0x00000000800690c4                D_800690C4
                0x00000000800690c8                D_800690c8
                0x00000000800690cc                D_800690cc
                0x00000000800690d0                D_800690D0
                0x00000000800690d4                D_800690D4
                0x00000000800690d8                D_800690D8
                0x00000000800690dc                D_800690DC
                0x00000000800690e0                D_800690E0
                0x00000000800690e8                D_800690E8
                0x00000000800690ec                D_800690EC
                0x00000000800690f0                D_800690F0
                0x00000000800690f4                D_800690F4
                0x00000000800690f8                D_800690F8
                0x00000000800690fc                D_800690FC
                0x0000000080069100                D_80069100
                0x0000000080069104                D_80069104
                0x0000000080069108                D_80069108
                0x000000008006910c                D_8006910C
                0x0000000080069110                D_80069110
                0x0000000080069114                D_80069114
                0x0000000080069118                D_80069118
                0x000000008006911c                D_8006911C
                0x0000000080069120                D_80069120
                0x0000000080069124                D_80069124
                0x0000000080069128                D_80069128
                0x0000000080069130                D_80069130
 build/game/initgamedata.o(.bss)
 build/game/initweaponanigroups.o(.bss)
 build/game/initactorpropstuff.o(.bss)
 build/game/initnull_0009D0.o(.bss)
 build/game/initunk_0009E0.o(.bss)
 build/game/initanitable.o(.bss)
 .bss           0x0000000080069170      0x3d0 build/game/initanitable.o
                0x0000000080069170                dword_CODE_bss_80069170
                0x0000000080069440                animMsgQ
                0x0000000080069458                dword_CODE_bss_80069458
                0x0000000080069518                animMesg
                0x0000000080069538                ptr_animation_table
 build/game/initunk_000B60.o(.bss)
 build/game/setguscale.o(.bss)
 build/game/initnull_000BC0.o(.bss)
 build/game/initimages.o(.bss)
 build/game/initintromatrices.o(.bss)
 build/game/initmenus.o(.bss)
 build/game/initguards.o(.bss)
 build/game/deb_loadallmodels.o(.bss)
 build/game/initobjects.o(.bss)
 build/game/prop.o(.bss)
 .bss           0x0000000080069540       0x10 build/game/prop.o
                0x0000000080069540                lastmpweaponnum
 build/game/objective.o(.bss)
 build/game/ejectedcartridges.o(.bss)
 build/game/initBondDATA.o(.bss)
 build/game/initunk_005450.o(.bss)
 build/game/initunk_005520.o(.bss)
 build/game/initcameraandthrown.o(.bss)
 build/game/inititemslots.o(.bss)
 build/game/initBondDATAdefaults.o(.bss)
 build/game/initpathtablesomething.o(.bss)
 build/game/initpathtablelinks.o(.bss)
 build/game/initexplosioncasing.o(.bss)
 build/game/initunk_007180.o(.bss)
 build/game/initunk_007290.o(.bss)
 build/game/initunk_0072B0.o(.bss)
 build/game/initmttex.o(.bss)
 build/game/initunk_0073B0.o(.bss)
 build/game/initunk_007460.o(.bss)
 build/game/cleanup_alarms.o(.bss)
 build/game/cleanup_objects.o(.bss)
 build/game/cleanup_objectives.o(.bss)
 build/game/cleanupSFXRelated.o(.bss)
 build/game/playerstats_007770.o(.bss)
 build/game/unk_007800.o(.bss)
 build/game/unk_007920.o(.bss)
 build/game/null_007970.o(.bss)
 build/game/unk_007980.o(.bss)
 build/game/intro_logos.o(.bss)
 .bss           0x0000000080069550       0x50 build/game/intro_logos.o
                0x0000000080069550                dword_CODE_bss_80069550
                0x0000000080069554                dword_CODE_bss_80069554
                0x0000000080069558                matrix_buffer_rarelogo_0
                0x000000008006955c                matrix_buffer_gunbarrel_0
                0x0000000080069560                matrix_buffer_rarelogo_1
                0x0000000080069564                matrix_buffer_rarelogo_2
                0x0000000080069568                matrix_buffer_gunbarrel_1
                0x000000008006956c                matrix_buffer_intro_backdrop
                0x0000000080069570                matrix_buffer_intro_bond
                0x0000000080069574                x
                0x0000000080069578                y
                0x000000008006957c                dword_CODE_bss_8006957C
                0x0000000080069580                dword_CODE_bss_80069580
                0x0000000080069584                word_CODE_bss_80069584
                0x0000000080069588                dword_CODE_bss_80069588
                0x000000008006958c                dword_CODE_bss_8006958C
                0x0000000080069590                virtualaddress
                0x0000000080069594                dword_CODE_bss_80069594
 build/game/mainmenu.o(.bss)
 .bss           0x00000000800695a0      0x380 build/game/mainmenu.o
                0x00000000800695a0                flt_CODE_bss_800695A0
                0x00000000800695a4                flt_CODE_bss_800695A4
                0x00000000800695a8                flt_CODE_bss_800695A8
                0x00000000800695ac                flt_CODE_bss_800695AC
                0x00000000800695b0                flt_CODE_bss_800695B0
                0x00000000800695b4                flt_CODE_bss_800695B4
                0x00000000800695b8                flt_CODE_bss_800695B8
                0x00000000800695bc                flt_CODE_bss_800695BC
                0x00000000800695c0                flt_CODE_bss_800695C0
                0x00000000800695c4                flt_CODE_bss_800695C4
                0x00000000800695c8                flt_CODE_bss_800695C8
                0x00000000800695cc                flt_CODE_bss_800695CC
                0x00000000800695d0                flt_CODE_bss_800695D0
                0x00000000800695d4                flt_CODE_bss_800695D4
                0x00000000800695d8                flt_CODE_bss_800695D8
                0x00000000800695dc                flt_CODE_bss_800695DC
                0x00000000800695e0                flt_CODE_bss_800695E0
                0x00000000800695e4                flt_CODE_bss_800695E4
                0x00000000800695e8                flt_CODE_bss_800695E8
                0x00000000800695ec                flt_CODE_bss_800695EC
                0x00000000800695f0                flt_CODE_bss_800695F0
                0x00000000800695f4                flt_CODE_bss_800695F4
                0x00000000800695f8                flt_CODE_bss_800695F8
                0x00000000800695fc                flt_CODE_bss_800695FC
                0x0000000080069600                flt_CODE_bss_80069600
                0x0000000080069604                flt_CODE_bss_80069604
                0x0000000080069608                flt_CODE_bss_80069608
                0x000000008006960c                flt_CODE_bss_8006960C
                0x0000000080069610                flt_CODE_bss_80069610
                0x0000000080069614                flt_CODE_bss_80069614
                0x0000000080069618                flt_CODE_bss_80069618
                0x000000008006961c                flt_CODE_bss_8006961C
                0x0000000080069620                dword_CODE_bss_80069620
                0x0000000080069650                CHEAT_80069650
                0x0000000080069651                cheat_available
                0x0000000080069652                CHEAT_AVAILABLE_INVINCIBLE
                0x0000000080069653                CHEAT_AVAILABLE_ALLGUNS
                0x0000000080069654                CHEAT_80069654
                0x0000000080069655                CHEAT_80069655
                0x0000000080069656                CHEAT_80069656
                0x0000000080069657                CHEAT_AVAILABLE_LINEMODE
                0x0000000080069658                CHEAT_AVAILABLE_2X_HEALTH
                0x0000000080069659                CHEAT_AVAILABLE_2X_ARMOR
                0x000000008006965a                CHEAT_AVAILABLE_BOND_INVIS
                0x000000008006965b                CHEAT_AVAILABLE_INFINITE_AMMO
                0x000000008006965c                CHEAT_AVAILABLE_DK_MODE
                0x000000008006965d                CHEAT_AVAILABLE_EXTRA_WEAPONS
                0x000000008006965e                CHEAT_AVAILABLE_TINY_BOND
                0x000000008006965f                CHEAT_AVAILABLE_PAINTBALL
                0x0000000080069660                CHEAT_AVAILABLE_10X_HEALTH
                0x0000000080069661                CHEAT_AVAILABLE_MAGNUM
                0x0000000080069662                CHEAT_AVAILABLE_LASER
                0x0000000080069663                CHEAT_AVAILABLE_GOLDENGUN
                0x0000000080069664                CHEAT_AVAILABLE_SILVERPP7
                0x0000000080069665                CHEAT_AVAILABLE_GOLDPP7
                0x0000000080069666                CHEAT_AVAILABLE_MP_INVINCIBILITY
                0x0000000080069667                CHEAT_AVAILABLE_NO_MP_RADAR
                0x0000000080069668                CHEAT_AVAILABLE_TURBO
                0x0000000080069669                CHEAT_AVAILABLE_DEBUG_MODE
                0x000000008006966a                CHEAT_AVAILABLE_FAST_ANI
                0x000000008006966b                CHEAT_AVAILABLE_SLOW_ANI
                0x000000008006966c                CHEAT_AVAILABLE_ENMY_ROCKETS
                0x000000008006966d                CHEAT_AVAILABLE_2X_ROCKET
                0x000000008006966e                CHEAT_AVAILABLE_2X_GRENADE_LAUNCHER
                0x000000008006966f                CHEAT_AVAILABLE_2X_RCP90
                0x0000000080069670                CHEAT_AVAILABLE_2X_THROWING_KNIVES
                0x0000000080069671                CHEAT_AVAILABLE_2X_HUNTING_KNIVES
                0x0000000080069672                CHEAT_AVAILABLE_2X_LASER
                0x0000000080069673                CHEAT_80069673
                0x0000000080069674                CHEAT_80069674
                0x0000000080069675                CHEAT_80069675
                0x0000000080069676                CHEAT_80069676
                0x0000000080069677                CHEAT_80069677
                0x0000000080069678                CHEAT_80069678
                0x00000000800696a0                cheat_activated
                0x00000000800696a1                CHEAT_AVAILABLE_EXTRA_CHARS
                0x00000000800696a2                cheat_activated_1
                0x00000000800696a3                cheat_activated_2
                0x00000000800696a4                CHEAT_AVAILABLE_MAX_AMMO
                0x00000000800696a5                cheat_activated_4
                0x00000000800696a6                cheat_activated_5
                0x00000000800696a7                cheat_activated_6
                0x00000000800696a8                cheat_activated_7
                0x00000000800696a9                cheat_activated_8
                0x00000000800696aa                cheat_activated_9
                0x00000000800696ab                cheat_activated_10
                0x00000000800696ac                cheat_activated_11
                0x00000000800696ad                cheat_activated_12
                0x00000000800696ae                cheat_activated_13
                0x00000000800696af                cheat_activated_14
                0x00000000800696b0                cheat_activated_15
                0x00000000800696b1                cheat_activated_16
                0x00000000800696b2                cheat_activated_17
                0x00000000800696b3                cheat_activated_18
                0x00000000800696b4                cheat_activated_19
                0x00000000800696b5                cheat_activated_20
                0x00000000800696b6                cheat_activated_21
                0x00000000800696b7                cheat_activated_22
                0x00000000800696b8                cheat_activated_23
                0x00000000800696b9                cheat_activated_24
                0x00000000800696ba                cheat_activated_25
                0x00000000800696bb                cheat_activated_26
                0x00000000800696bc                cheat_activated_27
                0x00000000800696bd                cheat_activated_28
                0x00000000800696be                cheat_activated_29
                0x00000000800696bf                cheat_activated_30
                0x00000000800696c0                cheat_activated_31
                0x00000000800696c1                cheat_activated_32
                0x00000000800696c2                cheat_activated_33
                0x00000000800696c3                cheat_activated_34
                0x00000000800696c4                cheat_activated_35
                0x00000000800696c5                cheat_activated_36
                0x00000000800696c6                cheat_activated_37
                0x00000000800696c7                cheat_activated_38
                0x00000000800696c8                cheat_activated_39
                0x00000000800696c9                cheat_activated_40
                0x00000000800696ca                cheat_activated_41
                0x00000000800696cb                cheat_activated_42
                0x00000000800696cc                cheat_activated_43
                0x00000000800696cd                cheat_activated_44
                0x00000000800696ce                cheat_activated_45
                0x00000000800696cf                cheat_activated_46
                0x00000000800696d0                cheat_activated_47
                0x00000000800696d1                cheat_activated_48
                0x00000000800696d2                cheat_activated_49
                0x00000000800696d3                cheat_activated_50
                0x00000000800696d4                cheat_activated_51
                0x00000000800696d5                cheat_activated_52
                0x00000000800696d6                cheat_activated_53
                0x00000000800696d7                cheat_activated_54
                0x00000000800696d8                cheat_activated_55
                0x00000000800696d9                cheat_activated_56
                0x00000000800696da                cheat_activated_57
                0x00000000800696db                cheat_activated_58
                0x00000000800696dc                cheat_activated_59
                0x00000000800696dd                cheat_activated_60
                0x00000000800696de                cheat_activated_61
                0x00000000800696df                cheat_activated_62
                0x00000000800696e0                cheat_activated_63
                0x00000000800696e1                cheat_activated_64
                0x00000000800696e2                cheat_activated_65
                0x00000000800696e3                cheat_activated_66
                0x00000000800696e4                cheat_activated_67
                0x00000000800696e5                cheat_activated_68
                0x00000000800696e6                cheat_activated_69
                0x00000000800696e7                cheat_activated_70
                0x00000000800696e8                cheat_activated_71
                0x00000000800696e9                cheat_activated_72
                0x00000000800696ea                cheat_activated_73
                0x00000000800696eb                cheat_activated_74
                0x00000000800696ec                cheat_activated_75
                0x00000000800696ed                cheat_activated_76
                0x00000000800696ee                cheat_activated_77
                0x00000000800696ef                cheat_activated_78
                0x00000000800696f0                fav_weapon_right_player1
                0x00000000800696f4                fav_weapon_left_player1
                0x00000000800696f8                fav_weapon_right_player2
                0x00000000800696fc                fav_weapon_left_player2
                0x0000000080069700                fav_weapon_right_player3
                0x0000000080069704                fav_weapon_left_player3
                0x0000000080069708                fav_weapon_right_player4
                0x000000008006970c                fav_weapon_left_player4
                0x0000000080069710                mp_char_cur_select_player1
                0x0000000080069714                mp_char_cur_select_player2
                0x0000000080069718                mp_char_cur_select_player3
                0x000000008006971c                mp_char_cur_select_player4
                0x0000000080069720                mp_char_prev_select_player1
                0x0000000080069724                mp_char_prev_select_player2
                0x0000000080069728                mp_char_prev_select_player3
                0x000000008006972c                mp_char_prev_select_player4
                0x0000000080069730                dword_CODE_bss_80069730
                0x0000000080069734                dword_CODE_bss_80069734
                0x0000000080069738                dword_CODE_bss_80069738
                0x000000008006973c                dword_CODE_bss_8006973C
                0x0000000080069740                has_selected_char_player1
                0x0000000080069744                has_selected_char_player2
                0x0000000080069748                has_selected_char_player3
                0x000000008006974c                has_selected_char_player4
                0x0000000080069750                size_mp_select_image_player1
                0x0000000080069754                size_mp_select_image_player2
                0x0000000080069758                size_mp_select_image_player3
                0x000000008006975c                size_mp_select_image_player4
                0x0000000080069760                dword_CODE_bss_80069760
                0x0000000080069764                dword_CODE_bss_80069764
                0x0000000080069768                dword_CODE_bss_80069768
                0x000000008006976c                dword_CODE_bss_8006976C
                0x0000000080069770                dword_CODE_bss_80069770
                0x0000000080069774                dword_CODE_bss_80069774
                0x0000000080069778                dword_CODE_bss_80069778
                0x000000008006977c                current_mp_stage_highlighted
                0x0000000080069780                dword_CODE_bss_80069780
                0x0000000080069784                mission_difficulty_highlighted
                0x0000000080069788                teamsize
                0x000000008006978c                ptrbriefingdata
                0x0000000080069790                newcheatunlocked
                0x0000000080069794                highlight_enemy_reaction
                0x0000000080069798                highlight_enemy_health
                0x000000008006979c                highlight_enemy_accuracy
                0x00000000800697a0                highlight_enemy_damage
                0x00000000800697a4                dword_CODE_bss_800697A4
                0x00000000800697a8                handicap_player1
                0x00000000800697ac                handicap_player2
                0x00000000800697b0                handicap_player3
                0x00000000800697b4                handicap_player4
                0x00000000800697b8                controlstyle_player1
                0x00000000800697bc                controlstyle_player2
                0x00000000800697c0                controlstyle_player3
                0x00000000800697c4                controlstyle_player4
                0x00000000800697c8                highlight_players
                0x00000000800697cc                highlight_scenario
                0x00000000800697d0                highlight_gameselect
                0x00000000800697d4                highlight_gamelength
                0x00000000800697d8                highlight_character
                0x00000000800697dc                highlight_weaponselect
                0x00000000800697e0                highlight_health
                0x00000000800697e4                highlight_controlstyle
                0x00000000800697e8                highlight_aimadjustment
                0x00000000800697f0                dword_CODE_bss_800697F0
 build/game/unk_01B0E0.o(.bss)
 build/game/unk_01B240.o(.bss)
 build/game/unk_01BAE0.o(.bss)
 build/game/blood_animation.o(.bss)
 build/game/blood_decrypt.o(.bss)
 build/game/eeprom.o(.bss)
 .bss           0x0000000080069920      0x250 build/game/eeprom.o
                0x0000000080069920                save1
                0x0000000080069980                save2
                0x00000000800699e0                save3
                0x0000000080069a40                save4
                0x0000000080069aa0                save5
                0x0000000080069b00                save6
                0x0000000080069b60                dword_CODE_bss_80069B60
 build/game/actor.o(.bss)
 build/game/actionblock.o(.bss)
 .bss           0x0000000080069b70     0xc1c0 build/game/actionblock.o
                0x0000000080069b70                sfx_related
                0x0000000080069c30                ptr_list_object_lookup_indices
                0x0000000080069c34                num_obj_position_data_entries
                0x0000000080069c38                pos_data_entry
                0x0000000080069c5c                dword_CODE_bss_80069C5C
                0x0000000080069c5d                dword_CODE_bss_80069C5D
                0x0000000080069c5e                dword_CODE_bss_80069C5E
                0x0000000080069c5f                dword_CODE_bss_80069C5F
                0x0000000080069c60                dword_CODE_bss_80069C60
                0x0000000080069c61                dword_CODE_bss_80069C61
                0x0000000080069c62                dword_CODE_bss_80069C62
                0x0000000080069c63                dword_CODE_bss_80069C63
                0x0000000080069c64                dword_CODE_bss_80069C64
                0x0000000080069c65                dword_CODE_bss_80069C65
                0x0000000080069c66                dword_CODE_bss_80069C66
                0x0000000080069c67                dword_CODE_bss_80069C67
                0x0000000080069c68                dword_CODE_bss_80069C68
                0x0000000080069c69                dword_CODE_bss_80069C69
                0x0000000080069c6a                dword_CODE_bss_80069C6A
                0x0000000080069c6b                dword_CODE_bss_80069C6B
                0x0000000080069c6c                dword_CODE_bss_80069C6C
                0x0000000080069c6d                dword_CODE_bss_80069C6D
                0x0000000080069c6e                dword_CODE_bss_80069C6E
                0x0000000080069c6f                dword_CODE_bss_80069C6F
                0x0000000080069c70                dword_CODE_bss_80069C70
                0x0000000080069c90                dword_CODE_bss_80069C90
                0x0000000080069ca0                dword_CODE_bss_80069CA0
                0x0000000080069cc4                dword_CODE_bss_80069CC4
                0x0000000080069cc8                dword_CODE_bss_80069CC8
                0x0000000080069ccc                dword_CODE_bss_80069CCC
                0x0000000080069cd0                dword_CODE_bss_80069CD0
                0x0000000080069cd4                dword_CODE_bss_80069CD4
                0x0000000080069cd8                dword_CODE_bss_80069CD8
                0x0000000080069cdc                dword_CODE_bss_80069CDC
                0x0000000080069ce0                dword_CODE_bss_80069CE0
                0x0000000080069d08                dword_CODE_bss_80069D08
                0x0000000080069d3c                dword_CODE_bss_80069D3C
                0x0000000080069d3d                dword_CODE_bss_80069D3D
                0x0000000080069d3e                dword_CODE_bss_80069D3E
                0x0000000080069d3f                dword_CODE_bss_80069D3F
                0x0000000080069d40                dword_CODE_bss_80069D40
                0x0000000080069d70                dword_CODE_bss_80069D70
                0x0000000080069da4                dword_CODE_bss_80069DA4
                0x0000000080069da5                dword_CODE_bss_80069DA5
                0x0000000080069da6                dword_CODE_bss_80069DA6
                0x0000000080069da7                dword_CODE_bss_80069DA7
                0x0000000080069da8                dword_CODE_bss_80069DA8
                0x0000000080071618                ptr_room_lookup_buffer_maybe
                0x000000008007161c                dword_CODE_bss_8007161C
                0x0000000080071620                dword_CODE_bss_80071620
                0x00000000800716b4                dword_CODE_bss_800716B4
                0x00000000800716b5                dword_CODE_bss_800716B5
                0x00000000800716b6                dword_CODE_bss_800716B6
                0x00000000800716b7                dword_CODE_bss_800716B7
                0x00000000800716b8                dword_CODE_bss_800716B8
                0x0000000080071df0                dword_CODE_bss_80071DF0
                0x0000000080071df4                dword_CODE_bss_80071DF4
                0x0000000080071df8                dword_CODE_bss_80071DF8
                0x0000000080071dfc                dword_CODE_bss_80071DFC
                0x0000000080071e00                dword_CODE_bss_80071E00
                0x0000000080071e04                dword_CODE_bss_80071E04
                0x0000000080071e08                dword_CODE_bss_80071E08
                0x0000000080071e78                gas_damage_flag
                0x0000000080071e7c                gas_cutoff_flag
                0x0000000080071e80                ProjectileData_start_address
                0x0000000080072e70                dword_CODE_bss_80072E70
                0x0000000080073370                dword_CODE_bss_80073370
                0x0000000080073dc0                dword_CODE_bss_80073DC0
                0x0000000080075030                dword_CODE_bss_80075030
                0x0000000080075b70                objinst
                0x0000000080075b74                dword_CODE_bss_80075B74
                0x0000000080075b78                flt_CODE_bss_80075B78
                0x0000000080075b7c                flt_CODE_bss_80075B7C
                0x0000000080075b80                flt_CODE_bss_80075B80
                0x0000000080075b84                flt_CODE_bss_80075B84
                0x0000000080075b88                flt_CODE_bss_80075B88
                0x0000000080075b8c                flt_CODE_bss_80075B8C
                0x0000000080075b90                flt_CODE_bss_80075B90
                0x0000000080075b94                flt_CODE_bss_80075B94
                0x0000000080075b98                dword_CODE_bss_80075B98
                0x0000000080075c04                dword_CODE_bss_80075C04
                0x0000000080075c08                dword_CODE_bss_80075C08
                0x0000000080075c0c                dword_CODE_bss_80075C0C
                0x0000000080075c10                dword_CODE_bss_80075C10
                0x0000000080075c88                dword_CODE_bss_80075C88
                0x0000000080075d00                ptr_setup_path_tbl
                0x0000000080075d04                ptr_setup_path_link
                0x0000000080075d08                ptr_setup_intro
                0x0000000080075d0c                ptr_setup_objects
                0x0000000080075d10                ptr_setup_path_sets
                0x0000000080075d14                ptr_setup_actions
                0x0000000080075d18                ptr_0xxxpresets
                0x0000000080075d1c                ptr_2xxxpresets
                0x0000000080075d20                dword_CODE_bss_80075D20
                0x0000000080075d24                dword_CODE_bss_80075D24
                0x0000000080075d28                dword_CODE_bss_80075D28
 build/game/loadobjectmodel.o(.bss)
 build/game/objective_status.o(.bss)
 .bss           0x0000000080075d30       0x70 build/game/objective_status.o
                0x0000000080075d30                objective_ptrs
                0x0000000080075d58                dword_CODE_bss_80075D58
                0x0000000080075d5c                dword_CODE_bss_80075D5C
                0x0000000080075d60                dword_CODE_bss_80075D60
                0x0000000080075d80                ptr_last_tag_entry_type16
                0x0000000080075d84                ptr_last_briefing_setup_entry_type23
                0x0000000080075d88                ptr_last_enter_room_subobject_entry_type20
                0x0000000080075d8c                ptr_last_deposit_in_room_subobject_entry_type21
                0x0000000080075d90                ptr_last_photo_obj_in_room_subobject_entry_type1E
 build/game/sin.o(.bss)
 build/game/unk_057FD0.o(.bss)
 .bss           0x0000000080075da0       0x10 build/game/unk_057FD0.o
                0x0000000080075da0                flt_CODE_bss_80075DA0
 build/game/unk_05A9E0.o(.bss)
 build/game/convertangleusinginverse.o(.bss)
 build/game/unk_05AB70.o(.bss)
 build/game/unk_05ACB0.o(.bss)
 build/game/unk_05AE00.o(.bss)
 build/game/unk_05B1E0.o(.bss)
 build/game/truncf.o(.bss)
 build/game/unk_05C440.o(.bss)
 build/game/bondview.o(.bss)
 .bss           0x0000000080075db0      0xca0 build/game/bondview.o
                0x0000000080075db0                dword_CODE_bss_80075DB0
                0x0000000080075db4                dword_CODE_bss_80075DB4
                0x0000000080075db8                dword_CODE_bss_80075DB8
                0x0000000080075dbc                dword_CODE_bss_80075DBC
                0x0000000080075dc0                dword_CODE_bss_80075DC0
                0x0000000080075dc4                dword_CODE_bss_80075DC4
                0x0000000080075dc8                dword_CODE_bss_80075DC8
                0x0000000080075e64                dword_CODE_bss_80075E64
                0x0000000080075e68                dword_CODE_bss_80075E68
                0x0000000080076a48                dword_CODE_bss_80076A48
 build/game/objecthandler.o(.bss)
 .bss           0x0000000080076a50     0x2ef0 build/game/objecthandler.o
                0x0000000080076a50                dword_CODE_bss_80076A50
                0x0000000080076a5c                dword_CODE_bss_80076A5C
                0x0000000080076a60                dword_CODE_bss_80076A60
                0x0000000080076a64                dword_CODE_bss_80076A64
                0x0000000080076a68                dword_CODE_bss_80076A68
                0x0000000080076a6c                dword_CODE_bss_80076A6C
                0x0000000080076a70                dword_CODE_bss_80076A70
                0x0000000080076a74                dword_CODE_bss_80076A74
                0x0000000080076a78                dword_CODE_bss_80076A78
                0x0000000080076a84                dword_CODE_bss_80076A84
                0x0000000080076a88                dword_CODE_bss_80076A88
                0x0000000080076a8c                dword_CODE_bss_80076A8C
                0x0000000080076a8d                dword_CODE_bss_80076A8D
                0x0000000080076a8e                dword_CODE_bss_80076A8E
                0x0000000080076a8f                dword_CODE_bss_80076A8F
                0x0000000080076a90                dword_CODE_bss_80076A90
                0x0000000080076aa0                dword_CODE_bss_80076AA0
                0x0000000080076ab4                dword_CODE_bss_80076AB4
                0x0000000080076ab5                dword_CODE_bss_80076AB5
                0x0000000080076ab6                dword_CODE_bss_80076AB6
                0x0000000080076ab7                dword_CODE_bss_80076AB7
                0x0000000080076ab8                dword_CODE_bss_80076AB8
                0x0000000080076ac8                dword_CODE_bss_80076AC8
                0x0000000080076adc                dword_CODE_bss_80076ADC
                0x0000000080076add                dword_CODE_bss_80076ADD
                0x0000000080076ade                dword_CODE_bss_80076ADE
                0x0000000080076adf                dword_CODE_bss_80076ADF
                0x0000000080076ae0                dword_CODE_bss_80076AE0
                0x0000000080079908                dword_CODE_bss_80079908
                0x0000000080079930                ptr_allocation_0
                0x0000000080079934                ptr_allocation_1
 build/game/objecthandler_2.o(.bss)
 build/game/othermodemicrocode.o(.bss)
 build/game/bond.o(.bss)
 .bss           0x0000000080079940      0x4e0 build/game/bond.o
                0x0000000080079940                flt_CODE_bss_80079940
                0x0000000080079944                flt_CODE_bss_80079944
                0x0000000080079948                flt_CODE_bss_80079948
                0x000000008007994c                flt_CODE_bss_8007994C
                0x0000000080079950                flt_CODE_bss_80079950
                0x0000000080079954                flt_CODE_bss_80079954
                0x0000000080079958                flt_CODE_bss_80079958
                0x000000008007995c                flt_CODE_bss_8007995C
                0x0000000080079960                flt_CODE_bss_80079960
                0x0000000080079964                flt_CODE_bss_80079964
                0x0000000080079968                flt_CODE_bss_80079968
                0x000000008007996c                flt_CODE_bss_8007996C
                0x0000000080079970                flt_CODE_bss_80079970
                0x0000000080079974                flt_CODE_bss_80079974
                0x0000000080079978                flt_CODE_bss_80079978
                0x000000008007997c                flt_CODE_bss_8007997C
                0x0000000080079980                flt_CODE_bss_80079980
                0x0000000080079984                flt_CODE_bss_80079984
                0x0000000080079988                flt_CODE_bss_80079988
                0x000000008007998c                flt_CODE_bss_8007998C
                0x0000000080079990                flt_CODE_bss_80079990
                0x0000000080079994                flt_CODE_bss_80079994
                0x0000000080079998                flt_CODE_bss_80079998
                0x000000008007999c                dword_CODE_bss_8007999C
                0x00000000800799a0                dword_CODE_bss_800799A0
                0x00000000800799a4                dword_CODE_bss_800799A4
                0x00000000800799a8                flt_CODE_bss_800799A8
                0x00000000800799ac                flt_CODE_bss_800799AC
                0x00000000800799b0                flt_CODE_bss_800799B0
                0x00000000800799b4                dword_CODE_bss_800799B4
                0x00000000800799b8                dword_CODE_bss_800799B8
                0x00000000800799bc                flt_CODE_bss_800799BC
                0x00000000800799c0                flt_CODE_bss_800799C0
                0x00000000800799c4                flt_CODE_bss_800799C4
                0x00000000800799c8                flt_CODE_bss_800799C8
                0x00000000800799cc                flt_CODE_bss_800799CC
                0x00000000800799d0                flt_CODE_bss_800799D0
                0x00000000800799d4                flt_CODE_bss_800799D4
                0x00000000800799d8                flt_CODE_bss_800799D8
                0x00000000800799dc                flt_CODE_bss_800799DC
                0x00000000800799e0                starting_right_weapon
                0x00000000800799e4                starting_left_weapon
                0x00000000800799e8                flt_CODE_bss_800799E8
                0x00000000800799ec                flt_CODE_bss_800799EC
                0x00000000800799f0                flt_CODE_bss_800799F0
                0x00000000800799f4                dword_CODE_bss_800799F4
                0x00000000800799f8                dword_CODE_bss_800799F8
                0x00000000800799fc                dword_CODE_bss_800799FC
                0x0000000080079a00                flt_CODE_bss_80079A00
                0x0000000080079a04                flt_CODE_bss_80079A04
                0x0000000080079a08                flt_CODE_bss_80079A08
                0x0000000080079a0c                flt_CODE_bss_80079A0C
                0x0000000080079a10                flt_CODE_bss_80079A10
                0x0000000080079a14                dword_CODE_bss_80079A14
                0x0000000080079a18                dword_CODE_bss_80079A18
                0x0000000080079a1c                dword_CODE_bss_80079A1C
                0x0000000080079a20                mission_timer
                0x0000000080079a24                watch_time_0
                0x0000000080079a28                dword_CODE_bss_80079A28
                0x0000000080079c28                dword_CODE_bss_80079C28
                0x0000000080079c68                dword_CODE_bss_80079C68
                0x0000000080079c6c                dword_CODE_bss_80079C6C
                0x0000000080079c70                dword_CODE_bss_80079C70
                0x0000000080079da0                dword_CODE_bss_80079DA0
                0x0000000080079da4                dword_CODE_bss_80079DA4
                0x0000000080079da8                dword_CODE_bss_80079DA8
                0x0000000080079dc8                dword_CODE_bss_80079DC8
                0x0000000080079e04                flt_CODE_bss_80079E04
                0x0000000080079e08                flt_CODE_bss_80079E08
                0x0000000080079e0c                flt_CODE_bss_80079E0C
                0x0000000080079e10                flt_CODE_bss_80079E10
 build/game/unk_08DBB0.o(.bss)
 build/game/debugmenu_08FE00.o(.bss)
 build/game/debugmenu_090490.o(.bss)
 build/game/unk_091080.o(.bss)
 .bss           0x0000000080079e20       0x10 build/game/unk_091080.o
                0x0000000080079e20                dword_CODE_bss_80079E20
 build/game/cheat_buttons_objectrelated.o(.bss)
 .bss           0x0000000080079e30       0x50 build/game/cheat_buttons_objectrelated.o
                0x0000000080079e30                off_CODE_bss_80079E30
 build/game/unk_092890.o(.bss)
 build/game/unk_092E50.o(.bss)
 .bss           0x0000000080079e80       0x10 build/game/unk_092E50.o
                0x0000000080079e80                flt_CODE_bss_80079E80
                0x0000000080079e84                flt_CODE_bss_80079E84
                0x0000000080079e88                flt_CODE_bss_80079E88
 build/game/unk_093880.o(.bss)
 .bss           0x0000000080079e90      0x240 build/game/unk_093880.o
                0x0000000080079e90                dword_CODE_bss_80079E90
                0x0000000080079e94                dword_CODE_bss_80079E94
                0x0000000080079e98                dword_CODE_bss_80079E98
                0x0000000080079ee0                ptr_BONDdata_p1
                0x0000000080079ee4                ptr_BONDdata_p2
                0x0000000080079ee8                ptr_BONDdata_p3
                0x0000000080079eec                ptr_BONDdata_p4
                0x0000000080079ef0                player1_player_data
                0x0000000080079f60                player2_player_data
                0x0000000080079fd0                player3_player_data
                0x000000008007a040                player4_player_data
                0x000000008007a0b0                ptr_BONDdata
                0x000000008007a0b4                cur_player_stat_ptr
                0x000000008007a0b8                player_num
                0x000000008007a0bc                random_byte
                0x000000008007a0c0                dword_CODE_bss_8007A0C0
                0x000000008007a0c4                dword_CODE_bss_8007A0C4
                0x000000008007a0c8                dword_CODE_bss_8007A0C8
                0x000000008007a0cc                dword_CODE_bss_8007A0CC
 build/game/unk_09B600.o(.bss)
 build/game/unk_09B740.o(.bss)
 build/game/unk_09B7A0.o(.bss)
 .bss           0x000000008007a0d0       0x30 build/game/unk_09B7A0.o
                0x000000008007a0d0                dword_CODE_bss_8007A0D0
                0x000000008007a0d4                dword_CODE_bss_8007A0D4
                0x000000008007a0d8                dword_CODE_bss_8007A0D8
                0x000000008007a0dc                dword_CODE_bss_8007A0DC
                0x000000008007a0e0                dword_CODE_bss_8007A0E0
                0x000000008007a0e4                dword_CODE_bss_8007A0E4
                0x000000008007a0e8                dword_CODE_bss_8007A0E8
                0x000000008007a0ec                dword_CODE_bss_8007A0EC
                0x000000008007a0f0                word_CODE_bss_8007A0F0
                0x000000008007a0f2                word_CODE_bss_8007A0F2
 build/game/unk_09C250.o(.bss)
 .bss           0x000000008007a100       0x60 build/game/unk_09C250.o
                0x000000008007a100                dword_CODE_bss_8007A100
                0x000000008007a140                ptr_smoke_buf
                0x000000008007a144                ptr_explosion_buf
                0x000000008007a148                max_casings
                0x000000008007a14c                ptr_ejected_casing_buf
                0x000000008007a150                ptr_scorch_buf
                0x000000008007a154                ptr_bullet_impact_buf
 build/game/unk_0A1DA0.o(.bss)
 .bss           0x000000008007a160      0xf40 build/game/unk_0A1DA0.o
                0x000000008007a160                dword_CODE_bss_8007A160
                0x000000008007a164                dword_CODE_bss_8007A164
                0x000000008007a168                dword_CODE_bss_8007A168
                0x000000008007a16c                dword_CODE_bss_8007A16C
                0x000000008007a170                dword_CODE_bss_8007A170
                0x000000008007a4e0                dword_CODE_bss_8007A4E0
                0x000000008007b098                dword_CODE_bss_8007B098
 build/game/watch.o(.bss)
 .bss           0x000000008007b0a0       0x80 build/game/watch.o
                0x000000008007b0a0                dword_CODE_bss_8007B0A0
                0x000000008007b0e0                dword_CODE_bss_8007B0E0
 build/game/textrelated.o(.bss)
 build/game/stan.o(.bss)
 .bss           0x000000008007b120      0xe70 build/game/stan.o
                0x000000008007b120                clippingfile
                0x000000008007b124                ptr_firstroom
                0x000000008007b128                dword_CODE_bss_8007B128
                0x000000008007b12c                dword_CODE_bss_8007B12C
                0x000000008007b130                dword_CODE_bss_8007B130
                0x000000008007b134                dword_CODE_bss_8007B134
                0x000000008007b135                dword_CODE_bss_8007B135
                0x000000008007b136                dword_CODE_bss_8007B136
                0x000000008007b137                dword_CODE_bss_8007B137
                0x000000008007b138                dword_CODE_bss_8007B138
                0x000000008007b354                dword_CODE_bss_8007B354
                0x000000008007b358                dword_CODE_bss_8007B358
                0x000000008007b9dc                dword_CODE_bss_8007B9DC
                0x000000008007b9e0                dword_CODE_bss_8007B9E0
                0x000000008007b9e4                dword_CODE_bss_8007B9E4
                0x000000008007b9e8                dword_CODE_bss_8007B9E8
                0x000000008007b9ec                dword_CODE_bss_8007B9EC
                0x000000008007b9f0                flt_CODE_bss_8007B9F0
                0x000000008007b9f4                flt_CODE_bss_8007B9F4
                0x000000008007b9f8                flt_CODE_bss_8007B9F8
                0x000000008007b9fc                flt_CODE_bss_8007B9FC
                0x000000008007ba00                flt_CODE_bss_8007BA00
                0x000000008007ba04                dword_CODE_bss_8007BA04
                0x000000008007ba08                dword_CODE_bss_8007BA08
                0x000000008007ba0c                dword_CODE_bss_8007BA0C
                0x000000008007ba10                dword_CODE_bss_8007BA10
 build/game/unk_0B3200.o(.bss)
 build/game/bg.o(.bss)
 .bss           0x000000008007bf90     0x6630 build/game/bg.o
                0x000000008007bf90                ptr_bg_data
                0x000000008007bf94                ptr_clipping
                0x000000008007bf98                dword_CODE_bss_8007BF98
                0x000000008007bfa0                list_visible_rooms_in_cur_global_vis_packet
                0x000000008007c038                num_visible_rooms_in_cur_global_vis_packet
                0x000000008007c040                dword_CODE_bss_8007C040
                0x000000008007c0a0                dword_CODE_bss_8007C0A0
                0x000000008007c100                dword_CODE_bss_8007C100
                0x000000008007ff80                ptr_bgdata_portals
                0x000000008007ff84                ptr_bgdata_offsets
                0x000000008007ff88                dword_CODE_bss_8007FF88
                0x000000008007ff8c                ptr_bgdata_room_fileposition_list
                0x000000008007ff90                dword_CODE_bss_8007FF90
                0x000000008007ff94                dword_CODE_bss_8007FF94
                0x000000008007ff98                dword_CODE_bss_8007FF98
                0x000000008007ff9c                dword_CODE_bss_8007FF9C
                0x000000008007ffa0                dword_CODE_bss_8007FFA0
                0x000000008007ffa4                dword_CODE_bss_8007FFA4
                0x000000008007ffa5                dword_CODE_bss_8007FFA5
                0x000000008007ffa6                dword_CODE_bss_8007FFA6
                0x000000008007ffa7                dword_CODE_bss_8007FFA7
                0x000000008007ffa8                dword_CODE_bss_8007FFA8
                0x0000000080081600                dword_CODE_bss_80081600
                0x0000000080081618                table_for_portals
 build/game/fog.o(.bss)
 .bss           0x00000000800825c0       0xa0 build/game/fog.o
                0x00000000800825c0                sky_enabled
                0x00000000800825c4                ptr_nearfog_enviroment_values
                0x00000000800825c8                buffer_far_pervasiveness
                0x00000000800825cc                far_fog
                0x00000000800825d0                D_800825D0
                0x00000000800825d4                D_800825D4
                0x00000000800825d8                flt_CODE_bss_800825D8
                0x00000000800825dc                flt_CODE_bss_800825DC
                0x00000000800825e0                buffer_far_ambiant
                0x00000000800825e4                bg_dif_light
                0x00000000800825e8                env_table_hit
                0x00000000800825ec                env_table_match_start
                0x00000000800825f0                env_table_match_end
                0x00000000800825f4                D_800825F4
                0x00000000800825f8                dword_CODE_bss_800825F8
                0x00000000800825fc                flt_CODE_bss_800825FC
                0x0000000080082600                flt_CODE_bss_80082600
                0x0000000080082604                DAT_80082604
                0x0000000080082608                DAT_80082608
                0x000000008008260c                DAT_8008260c
                0x0000000080082610                DAT_80082610
                0x0000000080082614                DAT_80082614
                0x0000000080082618                dword_CODE_bss_80082618
                0x000000008008261c                dword_CODE_bss_8008261C
                0x0000000080082620                off_CODE_bss_80082620
                0x0000000080082621                byte_CODE_bss_80082621
                0x0000000080082622                byte_CODE_bss_80082622
                0x0000000080082623                byte_CODE_bss_80082623
                0x0000000080082624                byte_CODE_bss_80082624
                0x0000000080082625                byte_CODE_bss_80082625
                0x0000000080082626                byte_CODE_bss_80082626
                0x0000000080082627                byte_CODE_bss_80082627
                0x0000000080082628                byte_CODE_bss_80082628
                0x0000000080082629                byte_CODE_bss_80082629
                0x000000008008262a                byte_CODE_bss_8008262a
                0x000000008008262b                byte_CODE_bss_8008262b
                0x000000008008262c                byte_CODE_bss_8008262c
                0x000000008008262d                byte_CODE_bss_8008262d
                0x000000008008262e                byte_CODE_bss_8008262e
                0x000000008008262f                byte_CODE_bss_8008262f
                0x0000000080082630                byte_CODE_bss_80082630
                0x0000000080082631                byte_CODE_bss_80082631
                0x0000000080082632                byte_CODE_bss_80082632
                0x0000000080082633                byte_CODE_bss_80082633
                0x0000000080082634                byte_CODE_bss_80082634
                0x0000000080082635                byte_CODE_bss_80082635
                0x0000000080082636                byte_CODE_bss_80082636
                0x0000000080082637                byte_CODE_bss_80082637
                0x0000000080082638                byte_CODE_bss_80082638
                0x0000000080082639                byte_CODE_bss_80082639
                0x000000008008263a                byte_CODE_bss_8008263a
                0x000000008008263b                byte_CODE_bss_8008263b
                0x000000008008263c                byte_CODE_bss_8008263c
                0x000000008008263d                byte_CODE_bss_8008263d
                0x000000008008263e                byte_CODE_bss_8008263e
                0x000000008008263f                byte_CODE_bss_8008263f
                0x0000000080082640                byte_CODE_bss_80082640
                0x0000000080082641                byte_CODE_bss_80082641
                0x0000000080082642                byte_CODE_bss_80082642
                0x0000000080082643                byte_CODE_bss_80082643
                0x0000000080082644                byte_CODE_bss_80082644
                0x0000000080082645                byte_CODE_bss_80082645
                0x0000000080082646                byte_CODE_bss_80082646
                0x0000000080082647                byte_CODE_bss_80082647
                0x0000000080082648                byte_CODE_bss_80082648
                0x0000000080082649                byte_CODE_bss_80082649
                0x000000008008264a                byte_CODE_bss_8008264a
                0x000000008008264b                byte_CODE_bss_8008264b
                0x000000008008264c                byte_CODE_bss_8008264c
                0x000000008008264d                byte_CODE_bss_8008264d
                0x000000008008264e                byte_CODE_bss_8008264e
                0x000000008008264f                byte_CODE_bss_8008264f
                0x0000000080082650                byte_CODE_bss_80082650
                0x0000000080082651                byte_CODE_bss_80082651
                0x0000000080082652                byte_CODE_bss_80082652
                0x0000000080082653                byte_CODE_bss_80082653
                0x0000000080082654                byte_CODE_bss_80082654
                0x0000000080082655                byte_CODE_bss_80082655
                0x0000000080082656                byte_CODE_bss_80082656
                0x0000000080082657                byte_CODE_bss_80082657
                0x0000000080082658                byte_CODE_bss_80082658
                0x0000000080082659                byte_CODE_bss_80082659
                0x000000008008265a                byte_CODE_bss_8008265a
                0x000000008008265b                byte_CODE_bss_8008265b
                0x000000008008265c                byte_CODE_bss_8008265c
                0x000000008008265d                byte_CODE_bss_8008265d
                0x000000008008265e                byte_CODE_bss_8008265e
                0x000000008008265f                byte_CODE_bss_8008265f
 build/game/lightfixture.o(.bss)
 .bss           0x0000000080082660      0xcc0 build/game/lightfixture.o
                0x0000000080082660                light_fixture_table
                0x0000000080082b10                cur_entry_lightfixture_table
                0x0000000080082b12                index_of_cur_entry_lightfixture_table
                0x0000000080082b18                word_CODE_bss_80082B18
                0x0000000080083318                dword_CODE_bss_80083318
 build/game/unk_0BC530.o(.bss)
 .bss           0x0000000080083320     0x5590 build/game/unk_0BC530.o
                0x0000000080083320                dword_CODE_bss_80083320
                0x0000000080083450                dword_CODE_bss_80083450
                0x0000000080083900                dword_CODE_bss_80083900
                0x0000000080083db0                dword_CODE_bss_80083DB0
 build/game/ob.o(.bss)
 .bss           0x00000000800888b0     0x3980 build/game/ob.o
                0x00000000800888b0                ptr_resource_data
                0x00000000800888c4                ptr_res_data_next
                0x00000000800888c8                dword_CODE_bss_800888c8
                0x00000000800888d8                dword_CODE_bss_800888D8
 build/game/dyn.o(.bss)
 .bss           0x000000008008c230       0x30 build/game/dyn.o
                0x000000008008c230                ptr_mgfx0_alloc_start
                0x000000008008c234                ptr_mgfx1_alloc_start
                0x000000008008c238                ptr_mgfx_end
                0x000000008008c23c                D_8008C23C
                0x000000008008c240                ptr_mvtx0_alloc_start
                0x000000008008c244                ptr_mvtx1_alloc_start
                0x000000008008c248                ptr_mvtx_end
                0x000000008008c24c                ptr_mvtx_cur_pos
                0x000000008008c250                bank_in_mgfx_alloc_table
                0x000000008008c254                dword_CODE_bss_8008C254
 build/game/lvl.o(.bss)
 .bss           0x000000008008c260      0x3a0 build/game/lvl.o
                0x000000008008c260                ptr_jfont_DL
                0x000000008008c264                dword_CODE_bss_8008C264
                0x000000008008c268                dword_CODE_bss_8008C268
                0x000000008008c26c                dword_CODE_bss_8008C26C
                0x000000008008c270                ramrom_data_target
                0x000000008008c5f0                record_slot_num
                0x000000008008c5f4                address_demo_loaded
                0x000000008008c5f8                dword_CODE_bss_8008C5F8
 build/game/lvl_2.o(.bss)
 build/game/unk_0C0A70.o(.bss)
 build/game/mp_music.o(.bss)
 .bss           0x000000008008c600       0x40 build/game/mp_music.o
                0x000000008008c600                dword_CODE_bss_8008C600
                0x000000008008c604                dword_CODE_bss_8008C604
                0x000000008008c608                dword_CODE_bss_8008C608
                0x000000008008c60c                dword_CODE_bss_8008C60C
                0x000000008008c610                dword_CODE_bss_8008C610
                0x000000008008c614                dword_CODE_bss_8008C614
                0x000000008008c618                dword_CODE_bss_8008C618
                0x000000008008c61c                dword_CODE_bss_8008C61C
                0x000000008008c620                dword_CODE_bss_8008C620
                0x000000008008c624                dword_CODE_bss_8008C624
                0x000000008008c628                dword_CODE_bss_8008C628
                0x000000008008c62c                dword_CODE_bss_8008C62C
                0x000000008008c630                dword_CODE_bss_8008C630
                0x000000008008c634                dword_CODE_bss_8008C634
 build/game/lvl_text.o(.bss)
 .bss           0x000000008008c640       0xc0 build/game/lvl_text.o
                0x000000008008c640                ptr_text
                0x000000008008c644                table_text_pointers
                0x000000008008c648                dword_CODE_bss_8008C648
                0x000000008008c6d8                dword_CODE_bss_8008C6D8
                0x000000008008c6dc                dword_CODE_bss_8008C6DC
                0x000000008008c6e0                dword_CODE_bss_8008C6E0
                0x000000008008c6e4                dword_CODE_bss_8008C6E4
                0x000000008008c6e8                dword_CODE_bss_8008C6E8
                0x000000008008c6ec                dword_CODE_bss_8008C6EC
                0x000000008008c6f0                dword_CODE_bss_8008C6F0
                0x000000008008c6f4                ptr_j_char_data_buf
                0x000000008008c6f8                ptr_j_char_registry
 build/game/mp_watch.o(.bss)
 .bss           0x000000008008c700       0x20 build/game/mp_watch.o
                0x000000008008c700                stop_play_flag
                0x000000008008c704                is_gameover_flag
                0x000000008008c708                dword_CODE_bss_8008C708
                0x000000008008c70c                dword_CODE_bss_8008C70C
                0x000000008008c710                time_trigger_alt_gameover_msg
                0x000000008008c714                dword_CODE_bss_8008C714
                0x000000008008c718                is_paused
                0x000000008008c71c                who_paused
 build/game/radar.o(.bss)
 build/game/mp_weapon.o(.bss)
 build/game/image.o(.bss)
 .bss           0x000000008008c720      0x980 build/game/image.o
                0x000000008008c720                ptr_texture_alloc_start
                0x000000008008c724                ptr_texture_alloc_end
                0x000000008008c728                ptr_next_available_space
                0x000000008008c72c                ptr_last_entry_facemapping
                0x000000008008c730                word_CODE_bss_8008C730
                0x000000008008d090                dword_CODE_bss_8008D090
                0x000000008008d094                dword_CODE_bss_8008D094
 build/game/image_bank.o(.bss)
 .bss           0x000000008008d0a0       0xa0 build/game/image_bank.o
                0x000000008008d0a0                dword_CODE_bss_8008D0A0
                0x000000008008d0a4                dword_CODE_bss_8008D0A4
                0x000000008008d0a8                dword_CODE_bss_8008D0A8
                0x000000008008d0ac                dword_CODE_bss_8008D0AC
                0x000000008008d0b0                globalbank_rdram_offset
                0x000000008008d0b4                ptr_explosionDL
                0x000000008008d0b8                image
                0x000000008008d0bc                dword_CODE_bss_8008D0BC
                0x000000008008d0c0                dword_CODE_bss_8008D0C0
                0x000000008008d0c4                dword_CODE_bss_8008D0C4
                0x000000008008d0c8                dword_CODE_bss_8008D0C8
                0x000000008008d0cc                dword_CODE_bss_8008D0CC
                0x000000008008d0d0                dword_CODE_bss_8008D0D0
                0x000000008008d0d4                dword_CODE_bss_8008D0D4
                0x000000008008d0d8                dword_CODE_bss_8008D0D8
                0x000000008008d0dc                dword_CODE_bss_8008D0DC
                0x000000008008d0e0                dword_CODE_bss_8008D0E0
                0x000000008008d0e4                dword_CODE_bss_8008D0E4
                0x000000008008d0e8                dword_CODE_bss_8008D0E8
                0x000000008008d0ec                dword_CODE_bss_8008D0EC
                0x000000008008d0f0                dword_CODE_bss_8008D0F0
                0x000000008008d0f4                dword_CODE_bss_8008D0F4
                0x000000008008d0f8                dword_CODE_bss_8008D0F8
                0x000000008008d0fc                dword_CODE_bss_8008D0FC
                0x000000008008d100                dword_CODE_bss_8008D100
                0x000000008008d104                dword_CODE_bss_8008D104
                0x000000008008d108                dword_CODE_bss_8008D108
                0x000000008008d10c                dword_CODE_bss_8008D10C
                0x000000008008d110                dword_CODE_bss_8008D110
                0x000000008008d114                imgcall
                0x000000008008d118                dword_CODE_bss_8008D118
                0x000000008008d11c                dword_CODE_bss_8008D11C
                0x000000008008d120                dword_CODE_bss_8008D120
                0x000000008008d124                dword_CODE_bss_8008D124
                0x000000008008d128                dword_CODE_bss_8008D128
                0x000000008008d12c                dword_CODE_bss_8008D12C
                0x000000008008d130                dword_CODE_bss_8008D130
                0x000000008008d134                dword_CODE_bss_8008D134
 build/game/unk_0CC4C0.o(.bss)
 .bss           0x000000008008d140      0x210 build/game/unk_0CC4C0.o
                0x000000008008d140                dword_CODE_bss_8008D140
                0x000000008008d144                dword_CODE_bss_8008D144
                0x000000008008d148                dword_CODE_bss_8008D148
                0x000000008008d2a8                dword_CODE_bss_8008D2A8
                0x000000008008d348                dword_CODE_bss_8008D348
 build/game/decompress.o(.bss)
 build/game/zlib.o(.bss)
 .bss           0x000000008008d350       0x20 build/game/zlib.o
                0x000000008008d350                dword_CODE_bss_8008D350
                0x000000008008d354                dword_CODE_bss_8008D354
                0x000000008008d358                dword_CODE_bss_8008D358
                0x000000008008d35c                dword_CODE_bss_8008D35C
                0x000000008008d360                dword_CODE_bss_8008D360
                0x000000008008d364                dword_CODE_bss_8008D364
                0x000000008008d368                dword_CODE_bss_8008D368
                0x000000008008d36c                dword_CODE_bss_8008D36C
 build/game/rsp.o(.bss)
 .bss           0x000000008008d370      0xfa0 build/game/rsp.o
                0x000000008008d370                dword_CODE_bss_8008D370
                0x000000008008d770                dword_CODE_bss_8008D770
 build/game/indy_comms.o(.bss)
 build/game/indy_0D0180.o(.bss)
 build/game/game_debug.o(.bss)
 build/game/compiletime.o(.bss)
 build/game/unk_0D1AC0.o(.bss)
 build/game/viewport.o(.bss)
 .bss           0x000000008008e310       0x10 build/game/viewport.o
                0x000000008008e310                viewport_img_width
                0x000000008008e314                viewport_img_height
 build/game/music_0D2720.o(.bss)
 build/game/spectrum.o(.bss)
 .bss           0x000000008008e320       0x40 build/game/spectrum.o
                0x000000008008e320                ptr_sectrum_monitor_data_temp_buf
                0x000000008008e324                ptr_sectrum_game_data_temp_buf
                0x000000008008e328                ptr_spectrum_roms
                0x000000008008e32c                ptr_300alloc
                0x000000008008e330                ptr_6000alloc
                0x000000008008e334                ptr_pc_keyboard_table_alloc
                0x000000008008e338                spectrum_header16_15
                0x000000008008e339                byte_CODE_bss_8008E339
                0x000000008008e33a                byte_CODE_bss_8008E33A
                0x000000008008e33b                byte_CODE_bss_8008E33B
                0x000000008008e33c                off_CODE_bss_8008E33C
                0x000000008008e33d                byte_CODE_bss_8008E33D
                0x000000008008e33e                byte_CODE_bss_8008E33E
                0x000000008008e33f                byte_CODE_bss_8008E33F
                0x000000008008e340                off_CODE_bss_8008E340
                0x000000008008e341                byte_CODE_bss_8008E341
                0x000000008008e342                byte_CODE_bss_8008E342
                0x000000008008e343                byte_CODE_bss_8008E343
                0x000000008008e344                off_CODE_bss_8008E344
                0x000000008008e345                byte_CODE_bss_8008E345
                0x000000008008e346                byte_CODE_bss_8008E346
                0x000000008008e347                byte_CODE_bss_8008E347
                0x000000008008e348                spec_I
                0x000000008008e349                byte_CODE_bss_8008E349
                0x000000008008e34a                spec_IFF2_lower
                0x000000008008e34b                spec_IFF2_upper
                0x000000008008e34c                spec_IM
                0x000000008008e34d                byte_CODE_bss_8008E34D
                0x000000008008e34e                spec_IX
                0x000000008008e350                spec_IY
                0x000000008008e352                spec_SP
                0x000000008008e354                spec_PC
 .bss           0x000000008008e360        0x0 build/rom_header.o
 .bss           0x000000008008e360        0x0 build/bootcode.o
 .bss           0x000000008008e360        0x0 build/_start.o
 .bss           0x000000008008e360        0x0 build/assets/romfiles.o
 .bss           0x000000008008e360        0x0 build/assets/ramrom/ramrom.o
 .bss           0x000000008008e360        0x0 build/assets/font/font.o
 .bss           0x000000008008e360        0x0 build/assets/music/music.o
 .bss           0x000000008008e360        0x0 build/assets/obseg/ob_seg.o
 .bss           0x000000008008e360        0x0 build/assets/images/images.o
 .bss           0x000000008008e360        0x0 build/rspboot.o
 .bss           0x000000008008e360        0x0 build/gspboot.o
 .bss           0x000000008008e360        0x0 build/aspboot.o
                [0x000000008008e360]                __ramPos = (__ramPos + SIZEOF (.bss))

/DISCARD/
 *(.MIPS.abiflags)
 *(.musicdecompressed)
 *(.options)
 *(.gnu.attributes)
 *(.pdr)
 *(.mdebug)
 *(.gptab.bss)
 *(.gptab.data)
 build/assets/romfiles.o(.data)
 build/assets/ramrom/ramrom.o(.data)
 build/assets/font/font.o(.data)
 build/assets/music/music.o(.data)
 build/assets/music/music.o(.data)
 build/assets/obseg/ob_seg.o(.data)
 build/assets/images/images.o(.data)
OUTPUT(ge007.u.elf elf32-tradbigmips)
